(dp1
S'/Library/Frameworks/Python.framework/Versions/2.6/lib/python2.6/site-packages/mwlib-0.11.2-py2.6-macosx-10.3-i386.egg/mwlib/templ/scanner.py'
p2
c__builtin__
set
p3
((lp4
I32
aI34
aI5
aI6
aI23
aI25
aI27
aI28
aI29
aI30
aI31
atRp5
sS'/Users/martinbudden/Documents/github/epub/epub/templates/titlepage.xml'
p6
g3
((lp7
I1
aI2
aI3
aI5
aI6
aI8
aI9
aI10
aI11
aI12
aI14
aI15
aI16
aI17
aI18
aI20
aI21
aI22
aI23
aI24
aI27
aI28
atRp8
sS'/Library/Frameworks/Python.framework/Versions/2.6/lib/python2.6/site-packages/mwlib-0.11.2-py2.6-macosx-10.3-i386.egg/mwlib/parser/__init__.py'
p9
g3
((lp10
I9
aI12
aI20
aI7
atRp11
sS'/Library/Frameworks/Python.framework/Versions/2.6/lib/python2.6/site-packages/py-1.2.1-py2.6.egg/py/__init__.py'
p12
g3
((lp13
I10
aI11
aI13
aI14
aI16
aI18
aI20
aI22
aI23
aI25
aI26
aI27
aI28
aI29
aI30
aI31
aI32
aI33
aI34
aI35
aI38
aI40
aI41
aI42
aI43
aI44
aI45
aI46
aI48
aI49
aI50
aI51
aI52
aI53
aI54
aI55
aI56
aI57
aI58
aI59
aI60
aI62
aI63
aI68
aI69
aI70
aI71
aI72
aI75
aI76
aI77
aI78
aI79
aI80
aI84
aI85
aI86
aI87
aI88
aI89
aI90
aI94
aI95
aI96
aI97
aI98
aI99
aI100
aI101
aI102
aI103
aI104
aI105
aI106
aI110
aI111
aI112
aI113
aI114
aI115
aI116
aI117
aI118
aI119
aI120
aI121
aI122
aI123
aI124
aI125
aI126
aI127
aI128
aI129
aI130
aI131
aI135
aI136
aI137
aI138
aI139
aI140
aI141
aI142
aI143
aI147
aI148
aI149
aI150
aI151
aI152
aI153
aI156
aI158
aI159
aI160
aI161
aI162
aI163
aI164
aI165
aI166
aI167
aI171
aI172
aI173
aI174
aI175
aI176
atRp14
sS'/Library/Frameworks/Python.framework/Versions/2.6/lib/python2.6/site-packages/py-1.2.1-py2.6.egg/py/_code/code.py'
p15
g3
((lp16
I1
aI2
aI4
aI6
aI519
aI8
aI9
aI10
aI11
aI12
aI13
aI14
aI15
aI16
aI20
aI23
aI26
aI548
aI555
aI94
aI574
aI579
aI580
aI72
aI585
aI74
aI75
aI76
aI77
aI78
aI79
aI594
aI83
aI597
aI87
aI603
aI604
aI93
aI606
aI96
aI611
aI102
aI109
aI623
aI624
aI113
aI626
aI190
aI120
aI124
aI125
aI127
aI192
aI646
aI138
aI651
aI652
aI657
aI147
aI152
aI666
aI667
aI670
aI674
aI675
aI710
aI166
aI167
aI169
aI171
aI180
aI183
aI698
aI187
aI188
aI701
aI702
aI703
aI704
aI705
aI194
aI707
aI196
aI198
aI713
aI632
aI210
aI213
aI738
aI740
aI742
aI233
aI235
aI754
aI248
aI761
aI763
aI764
aI765
aI766
aI767
aI588
aI262
aI264
aI266
aI111
aI269
aI270
aI271
aI282
aI303
aI309
aI321
aI330
aI350
aI351
aI353
aI356
aI357
aI358
aI374
aI377
aI393
aI397
aI404
aI405
aI415
aI155
aI420
aI421
aI423
aI424
aI426
aI433
aI448
aI454
aI457
aI589
aI464
aI484
aI678
aI496
aI85
atRp17
sS'/Library/Frameworks/Python.framework/Versions/2.6/lib/python2.6/site-packages/mwlib-0.11.2-py2.6-macosx-10.3-i386.egg/mwlib/expander.py'
p18
g3
((lp19
I36
aI6
aI8
aI10
aI11
aI12
aI13
aI14
aI17
aI50
aI59
atRp20
sS'/Users/martinbudden/Documents/github/epub/test/__init__.py'
p21
g3
((lp22
I1
atRp23
sS'/Library/Frameworks/Python.framework/Versions/2.6/lib/python2.6/site-packages/Jinja2-2.1.1-py2.6-macosx-10.3-i386.egg/jinja2/optimizer.py'
p24
g3
((lp25
I32
aI33
aI67
aI68
aI35
aI18
aI26
aI19
aI20
aI62
aI54
aI23
aI56
aI57
aI58
aI27
aI61
aI30
atRp26
sS'/Library/Frameworks/Python.framework/Versions/2.6/lib/python2.6/site-packages/py-1.2.1-py2.6.egg/py/_plugin/pytest_monkeypatch.py'
p27
g3
((lp28
I54
aI113
aI105
aI79
aI81
aI82
aI122
aI86
aI119
aI56
aI58
aI101
aI93
aI127
atRp29
sS'/Users/martinbudden/Documents/github/epub/epub/templates/content.opf'
p30
g3
((lp31
I1
aI2
aI3
aI5
aI6
aI7
aI8
aI9
aI10
aI11
aI12
aI13
aI14
aI15
aI16
aI17
aI18
aI20
aI21
aI22
aI23
aI24
aI25
aI26
aI27
aI28
aI29
aI30
aI32
aI33
aI35
aI36
aI37
aI39
aI40
aI41
aI42
aI44
aI45
aI46
aI48
aI49
aI50
aI52
aI53
aI55
aI56
aI58
aI59
aI60
aI61
aI63
aI64
aI65
aI66
aI68
aI69
aI71
aI72
atRp32
sS'/Library/Frameworks/Python.framework/Versions/2.6/lib/python2.6/tempfile.py'
p33
g3
((lp34
I520
aI525
aI529
aI18
aI532
aI21
aI22
aI23
aI24
aI25
aI26
aI539
aI543
aI32
aI33
aI34
aI547
aI36
aI37
aI550
aI41
aI42
aI557
aI47
aI48
aI49
aI565
aI54
aI55
aI568
aI58
aI571
aI62
aI64
aI65
aI67
aI68
aI70
aI71
aI584
aI74
aI75
aI590
aI79
aI83
aI596
aI85
aI86
aI602
aI99
aI107
aI113
aI116
aI117
aI119
aI120
aI121
aI122
aI124
aI127
aI128
aI129
aI130
aI132
aI133
aI134
aI136
aI138
aI535
aI140
aI144
aI147
aI148
aI149
aI152
aI155
aI158
aI161
aI162
aI166
aI168
aI177
aI178
aI179
aI181
aI182
aI183
aI185
aI186
aI187
aI188
aI189
aI190
aI191
aI192
aI193
aI194
aI195
aI203
aI205
aI209
aI210
aI211
aI212
aI213
aI215
aI216
aI219
aI222
aI224
aI225
aI226
aI227
aI228
aI229
aI230
aI241
aI245
aI553
aI250
aI251
aI252
aI253
aI254
aI256
aI257
aI259
aI561
aI296
aI327
aI59
aI357
aI363
aI365
aI371
aI574
aI383
aI390
aI577
aI396
aI398
aI405
aI580
aI410
aI416
aI417
aI448
aI587
aI454
aI455
aI247
aI467
aI468
aI470
aI471
aI475
aI476
aI477
aI478
aI483
aI487
aI488
aI490
aI491
aI497
aI503
atRp35
sS'/Library/Frameworks/Python.framework/Versions/2.6/lib/python2.6/xml/etree/ElementTree.py'
p36
g3
((lp37
I1025
aI598
aI518
aI522
aI87
aI524
aI526
aI1041
aI1046
aI540
aI542
aI517
aI1064
aI554
aI1075
aI564
aI577
aI1091
aI75
aI76
aI77
aI78
aI79
aI80
aI81
aI82
aI83
aI84
aI85
aI86
aI1111
aI1113
aI610
aI112
aI114
aI116
aI121
aI1149
aI126
aI643
aI1156
aI135
aI136
aI1167
aI144
aI1175
aI665
aI159
aI1184
aI1187
aI165
aI1190
aI175
aI449
aI181
aI628
aI188
aI190
aI191
aI192
aI193
aI195
aI205
aI1236
aI213
aI726
aI1244
aI223
aI740
aI1253
aI234
aI1260
aI749
aI755
aI244
aI758
aI760
aI761
aI762
aI763
aI764
aI254
aI767
aI769
aI770
aI771
aI772
aI775
aI265
aI780
aI276
aI285
aI800
aI295
aI815
aI308
aI319
aI832
aI329
aI343
aI655
aI860
aI354
aI361
aI874
aI876
aI375
aI384
aI394
aI404
aI921
aI419
aI430
aI945
aI946
aI947
aI447
aI448
aI961
aI450
aI974
aI466
aI993
aI484
aI1003
aI498
aI505
aI1023
atRp38
sS'/Library/Frameworks/Python.framework/Versions/2.6/lib/python2.6/sre_compile.py'
p39
g3
((lp40
I515
aI521
aI522
aI523
aI524
aI526
aI527
aI528
aI529
aI25
aI40
aI41
aI42
aI43
aI44
aI45
aI46
aI47
aI48
aI49
aI50
aI52
aI53
aI54
aI55
aI56
aI57
aI58
aI60
aI61
aI62
aI63
aI64
aI65
aI66
aI67
aI69
aI70
aI71
aI80
aI81
aI82
aI84
aI85
aI86
aI87
aI88
aI89
aI90
aI92
aI93
aI94
aI95
aI96
aI97
aI98
aI99
aI101
aI102
aI103
aI104
aI105
aI107
aI108
aI109
aI110
aI111
aI113
aI114
aI115
aI116
aI117
aI119
aI120
aI122
aI123
aI124
aI125
aI126
aI132
aI133
aI134
aI135
aI136
aI138
aI140
aI141
aI142
aI143
aI144
aI145
aI146
aI148
aI149
aI150
aI151
aI152
aI153
aI154
aI155
aI162
aI163
aI164
aI167
aI186
aI187
aI188
aI189
aI190
aI191
aI192
aI193
aI194
aI195
aI196
aI197
aI198
aI199
aI200
aI201
aI202
aI203
aI205
aI206
aI208
aI211
aI215
aI216
aI217
aI218
aI219
aI220
aI221
aI222
aI223
aI224
aI225
aI226
aI227
aI229
aI230
aI232
aI234
aI235
aI236
aI237
aI238
aI239
aI240
aI241
aI242
aI243
aI244
aI245
aI246
aI247
aI248
aI250
aI251
aI252
aI254
aI255
aI256
aI259
aI260
aI261
aI262
aI265
aI266
aI267
aI268
aI271
aI272
aI273
aI274
aI275
aI276
aI277
aI278
aI279
aI308
aI309
aI312
aI313
aI314
aI315
aI316
aI318
aI319
aI320
aI321
aI322
aI329
aI335
aI336
aI337
aI338
aI339
aI340
aI341
aI342
aI343
aI344
aI345
aI346
aI347
aI348
aI352
aI354
aI355
aI356
aI357
aI358
aI362
aI363
aI365
aI371
aI372
aI373
aI375
aI376
aI377
aI378
aI379
aI380
aI382
aI383
aI384
aI385
aI386
aI387
aI388
aI389
aI392
aI394
aI396
aI397
aI398
aI399
aI400
aI401
aI402
aI403
aI404
aI405
aI406
aI408
aI409
aI410
aI412
aI414
aI415
aI416
aI417
aI418
aI419
aI421
aI422
aI423
aI425
aI427
aI428
aI429
aI435
aI436
aI437
aI439
aI440
aI441
aI442
aI443
aI444
aI445
aI446
aI448
aI449
aI453
aI454
aI456
aI458
aI459
aI460
aI461
aI463
aI464
aI465
aI466
aI467
aI468
aI469
aI470
aI471
aI481
aI482
aI483
aI484
aI488
aI489
aI492
aI495
aI497
aI499
aI504
aI505
aI506
aI508
aI510
atRp41
sS'/Library/Frameworks/Python.framework/Versions/2.6/lib/python2.6/smtplib.py'
p42
g3
((lp43
I514
aI33
aI44
aI45
aI46
aI47
aI48
aI49
aI50
aI52
aI53
aI54
aI55
aI57
aI58
aI59
aI61
aI64
aI65
aI67
aI73
aI75
aI269
aI592
aI82
aI84
aI185
aI89
aI94
aI96
aI102
aI108
aI110
aI115
aI116
aI629
aI118
aI119
aI121
aI122
aI124
aI129
aI131
aI150
aI160
aI161
aI165
aI169
aI170
aI173
aI182
aI628
aI187
aI718
aI215
aI728
aI217
aI218
aI219
aI220
aI221
aI734
aI223
aI224
aI743
aI744
aI745
aI746
aI752
aI759
aI764
aI766
aI260
aI777
aI779
aI781
aI785
aI275
aI807
aI300
aI312
aI320
aI736
aI216
aI360
aI366
aI376
aI426
aI430
aI436
aI440
aI444
aI452
aI460
aI483
aI488
aI490
aI497
atRp44
sS'/Library/Frameworks/Python.framework/Versions/2.6/lib/python2.6/json/decoder.py'
p45
g3
((lp46
I2
aI4
aI5
aI7
aI8
aI9
aI13
aI271
aI17
aI274
aI147
aI148
aI277
aI152
aI156
aI29
aI159
aI162
aI39
aI40
aI41
aI42
aI43
aI44
aI45
aI49
aI306
aI307
aI308
aI309
aI310
aI311
aI57
aI60
aI203
aI325
aI70
aI73
aI74
aI75
aI76
aI206
aI79
aI82
aI313
aI15
aI20
aI230
aI273
aI234
aI235
aI236
aI237
aI238
aI241
aI244
aI276
atRp47
sS'/Library/Frameworks/Python.framework/Versions/2.6/lib/python2.6/pdb.py'
p48
g3
((lp49
I1026
aI3
aI1029
aI7
aI8
aI9
aI10
aI11
aI12
aI13
aI14
aI15
aI1041
aI18
aI19
aI20
aI1045
aI24
aI25
aI26
aI103
aI28
aI1114
aI31
aI1064
aI555
aI1071
aI1073
aI1076
aI1080
aI57
aI1082
aI59
aI61
aI1086
aI1090
aI523
aI1038
aI598
aI600
aI602
aI603
aI605
aI1118
aI613
aI615
aI107
aI623
aI113
aI628
aI630
aI120
aI633
aI635
aI638
aI640
aI1153
aI1156
aI133
aI650
aI652
aI142
aI655
aI657
aI707
aI660
aI662
aI1049
aI152
aI1180
aI625
aI681
aI172
aI29
aI178
aI693
aI1206
aI1209
aI698
aI699
aI1212
aI701
aI191
aI1216
aI1219
aI197
aI1224
aI203
aI719
aI721
aI726
aI728
aI1244
aI1246
aI1250
aI740
aI746
aI1261
aI752
aI253
aI1238
aI265
aI1304
aI795
aI797
aI294
aI296
aI824
aI318
aI837
aI844
aI845
aI855
aI228
aI862
aI874
aI877
aI884
aI887
aI893
aI895
aI898
aI903
aI906
aI1053
aI911
aI401
aI914
aI408
aI410
aI413
aI927
aI930
aI679
aI943
aI947
aI952
aI957
aI446
aI965
aI972
aI975
aI464
aI980
aI983
aI988
aI991
aI481
aI996
aI999
aI1003
aI1006
aI1009
aI498
aI1013
aI1016
aI1020
atRp50
sS'/Library/Frameworks/Python.framework/Versions/2.6/lib/python2.6/site-packages/pkg_resources.py'
p51
g3
((lp52
I2560
aI2561
aI2562
aI2472
aI2564
aI2565
aI2566
aI2570
aI1879
aI2573
aI2563
aI1881
aI2200
aI546
aI547
aI548
aI549
aI551
aI1988
aI2141
aI2099
aI2100
aI1877
aI2108
aI573
aI2110
aI2111
aI2112
aI2118
aI2119
aI314
aI867
aI2202
aI2136
aI2137
aI2138
aI2139
aI2140
aI2475
aI2142
aI2143
aI2144
aI1122
aI1123
aI2149
aI2150
aI2151
aI2152
aI1981
aI1132
aI2159
aI2162
aI2163
aI2164
aI1982
aI1983
aI2496
aI1157
aI1158
aI1161
aI1167
aI1170
aI2499
aI1173
aI1113
aI1176
aI2201
aI1178
aI1181
aI2218
aI2219
aI2221
aI2225
aI2226
aI2227
aI2228
aI2229
aI2231
aI2232
aI2237
aI2421
aI203
aI196
aI197
aI198
aI199
aI501
aI204
aI1232
aI1233
aI2510
aI1238
aI463
aI2000
aI1250
aI1251
aI2513
aI1256
aI1257
aI1258
aI1259
aI1264
aI1265
aI1918
aI500
aI1919
aI1276
aI1237
aI2432
aI1921
aI1288
aI1289
aI1290
aI1292
aI2436
aI2438
aI1326
aI1327
aI478
aI310
aI311
aI1848
aI1849
aI1850
aI1851
aI1852
aI1854
aI1855
aI1856
aI1933
aI312
aI2387
aI1876
aI2389
aI1878
aI2391
aI1880
aI2393
aI2394
aI1935
aI1885
aI2402
aI2403
aI2406
aI2407
aI2409
aI2410
aI2412
aI2109
aI2417
aI2418
aI2419
aI318
aI2422
aI2423
aI2425
aI2426
aI2427
aI2429
aI2430
aI2431
aI1920
aI2433
aI1924
aI2437
aI1926
aI1927
aI1420
aI1421
aI2029
aI1936
aI1937
aI1938
aI1939
aI1991
aI1437
aI1438
aI2465
aI2466
aI2467
aI1956
aI1957
aI2470
aI1960
aI2473
aI1963
aI1965
aI1966
aI2035
aI2487
aI2488
aI2489
aI2492
aI2493
aI2494
aI2495
aI1984
aI1985
aI1986
aI1987
aI2500
aI1989
aI1990
aI1953
aI1993
aI503
aI1954
aI462
aI2511
aI2512
aI504
aI466
aI1955
aI1493
aI2468
aI475
aI476
aI477
aI2014
aI2469
aI2016
aI2017
aI2018
aI2019
aI2532
aI2021
aI2022
aI2535
aI2539
aI2540
aI2541
aI2032
aI2033
aI2034
aI499
aI2036
aI2037
aI502
aI2039
aI2040
aI2042
aI2043
aI2558
aI2559
atRp53
sS'/Library/Frameworks/Python.framework/Versions/2.6/lib/python2.6/site-packages/py-1.2.1-py2.6.egg/py/_xmlgen.py'
p54
g3
((lp55
I129
aI133
aI6
aI7
aI136
aI10
aI141
aI18
aI19
aI20
aI23
aI24
aI68
aI103
aI167
aI40
aI41
aI44
aI48
aI8
aI50
aI179
aI52
aI57
aI186
aI61
aI62
aI63
aI64
aI67
aI196
aI200
aI76
aI74
aI75
aI204
aI77
aI78
aI207
aI208
aI209
aI210
aI212
aI206
aI214
aI88
aI100
aI90
aI91
aI221
aI224
aI97
aI99
aI228
aI229
aI230
aI231
aI104
aI105
aI234
aI39
aI236
aI239
aI232
aI114
aI243
atRp56
sS'/Library/Frameworks/Python.framework/Versions/2.6/lib/python2.6/codecs.py'
p57
g3
((lp58
I79
aI80
aI81
aI82
aI83
aI84
aI85
aI86
aI87
atRp59
sS'/Users/martinbudden/Documents/github/epub/test/test_wsb.py'
p60
g3
((lp61
I3
aI6
aI8
aI10
aI12
aI13
aI14
aI16
aI17
aI20
aI25
aI26
aI29
aI30
aI31
aI38
aI39
aI40
aI41
aI42
aI45
aI67
aI68
aI69
aI70
aI71
aI72
aI73
aI76
aI77
aI78
aI79
aI80
aI82
aI83
aI84
aI85
aI86
aI87
aI88
aI89
aI90
aI91
aI92
aI93
aI95
aI97
aI98
aI99
aI104
aI105
aI106
aI107
aI108
aI109
aI110
aI113
aI123
atRp62
sS'/Library/Frameworks/Python.framework/Versions/2.6/lib/python2.6/bisect.py'
p63
g3
((lp64
I1
aI3
aI45
aI47
aI67
aI22
aI24
aI89
aI90
atRp65
sS'/Library/Frameworks/Python.framework/Versions/2.6/lib/python2.6/email/_parseaddr.py'
p66
g3
((lp67
I384
aI131
aI388
aI7
aI392
aI10
aI471
aI140
aI13
aI16
aI18
aI19
aI20
aI150
aI23
aI24
aI25
aI26
aI155
aI412
aI163
aI36
aI37
aI38
aI39
aI40
aI41
aI299
aI45
aI435
aI436
aI437
aI184
aI444
aI447
aI194
aI11
aI324
aI456
aI12
aI28
aI463
aI208
aI343
aI267
aI478
aI165
aI380
atRp68
sS'/Library/Frameworks/Python.framework/Versions/2.6/lib/python2.6/site-packages/Jinja2-2.1.1-py2.6-macosx-10.3-i386.egg/jinja2/filters.py'
p69
g3
((lp70
I520
aI684
aI10
aI11
aI12
aI13
aI14
aI15
aI16
aI17
aI18
aI21
aI601
aI24
aI34
aI38
aI552
aI41
aI44
aI559
aI51
aI52
aI79
aI84
aI598
aI599
aI600
aI89
aI90
aI603
aI607
aI614
aI621
aI626
aI125
aI643
aI132
aI705
aI139
aI668
aI669
aI670
aI671
aI672
aI673
aI674
aI675
aI676
aI677
aI678
aI679
aI680
aI681
aI682
aI683
aI172
aI685
aI686
aI687
aI688
aI689
aI690
aI691
aI692
aI693
aI694
aI695
aI696
aI697
aI698
aI699
aI700
aI701
aI702
aI703
aI704
aI193
aI706
aI707
aI708
aI709
aI710
aI711
aI712
aI713
aI714
aI215
aI216
aI40
aI253
aI258
aI267
aI276
aI285
aI303
aI312
aI313
aI331
aI349
aI380
aI393
aI398
aI413
aI424
aI439
aI444
aI452
aI488
atRp71
sS'/Library/Frameworks/Python.framework/Versions/2.6/lib/python2.6/xml/sax/xmlreader.py'
p72
g3
((lp73
I2
aI4
aI6
aI11
aI22
aI24
aI25
aI26
aI27
aI28
aI30
aI34
aI38
aI40
aI42
aI46
aI50
aI54
aI58
aI62
aI64
aI66
aI75
aI79
aI83
aI87
aI91
aI109
aI111
aI112
aI113
aI115
aI116
aI117
aI119
aI120
aI121
aI122
aI123
aI124
aI125
aI127
aI136
aI141
aI154
aI163
aI167
aI169
aI173
aI177
aI181
aI187
aI201
aI203
aI204
aI205
aI206
aI207
aI208
aI210
aI214
aI218
aI222
aI224
aI226
aI236
aI238
aI240
aI251
aI253
aI258
aI260
aI270
aI276
aI278
aI282
aI284
aI287
aI290
aI293
aI296
aI301
aI306
aI309
aI312
aI315
aI318
aI321
aI324
aI327
aI330
aI333
aI336
aI341
aI343
aI351
aI358
aI365
aI368
aI371
aI375
aI380
atRp74
sS'/Library/Frameworks/Python.framework/Versions/2.6/lib/python2.6/site-packages/mwlib-0.11.2-py2.6-macosx-10.3-i386.egg/mwlib/tagext.py'
p75
g3
((lp76
I25
aI27
aI28
aI29
aI31
aI32
aI33
aI34
aI35
aI37
aI40
aI43
aI46
aI47
aI49
aI73
aI74
aI75
aI77
aI80
aI81
aI90
aI91
aI92
aI93
aI94
aI95
aI96
aI97
aI98
aI99
aI100
aI101
aI102
aI103
aI104
aI105
aI106
aI108
aI111
aI112
aI113
aI121
aI124
aI125
aI126
aI129
aI132
aI133
aI134
aI137
aI139
aI141
aI142
aI144
aI146
aI149
aI150
aI154
aI156
aI157
aI158
aI163
aI165
aI167
aI168
aI183
aI187
aI189
aI190
aI194
aI195
aI196
aI197
aI198
aI199
aI200
aI201
aI202
aI203
aI204
aI205
aI206
aI207
aI208
aI209
aI215
aI217
aI218
aI219
aI221
aI222
aI223
aI225
aI226
aI227
aI229
aI230
aI231
aI233
aI234
aI235
aI237
aI238
aI239
atRp77
sS'/Library/Frameworks/Python.framework/Versions/2.6/lib/python2.6/StringIO.py'
p78
g3
((lp79
I258
aI139
aI277
aI30
aI31
aI32
aI36
aI38
aI168
aI42
aI53
aI54
aI187
aI65
aI322
aI68
aI208
aI81
aI88
aI95
aI241
aI114
aI119
aI253
atRp80
sS'/Library/Frameworks/Python.framework/Versions/2.6/lib/python2.6/site-packages/Jinja2-2.1.1-py2.6-macosx-10.3-i386.egg/jinja2/tests.py'
p81
g3
((lp82
I128
aI129
aI130
aI131
aI132
aI133
aI134
aI135
aI10
aI11
aI12
aI15
aI16
aI19
aI24
aI29
aI34
aI51
aI56
aI61
aI66
aI71
aI76
aI81
aI93
aI106
aI115
aI120
aI121
aI122
aI123
aI124
aI125
aI126
aI127
atRp83
sS'/Library/Frameworks/Python.framework/Versions/2.6/lib/python2.6/site-packages/py-1.2.1-py2.6.egg/py/_code/assertion.py'
p84
g3
((lp85
I1
aI2
aI4
aI7
aI40
aI41
aI74
aI46
aI48
atRp86
sS'/Library/Frameworks/Python.framework/Versions/2.6/lib/python2.6/email/mime/nonmultipart.py'
p87
g3
((lp88
I5
aI7
aI9
aI10
aI14
aI15
aI17
aI19
aI26
atRp89
sS'/Library/Frameworks/Python.framework/Versions/2.6/lib/python2.6/site-packages/mwlib-0.11.2-py2.6-macosx-10.3-i386.egg/mwlib/templ/misc.py'
p90
g3
((lp91
I36
aI5
aI6
aI8
aI9
aI10
aI25
aI28
aI31
atRp92
sS'/Library/Frameworks/Python.framework/Versions/2.6/lib/python2.6/site-packages/py-1.2.1-py2.6.egg/py/_plugin/pytest_doctest.py'
p93
g3
((lp94
I23
aI25
aI26
aI27
aI29
aI30
aI31
aI32
aI33
aI34
aI35
aI36
aI37
aI38
aI40
aI41
aI42
aI43
aI45
aI48
aI49
aI52
aI57
aI58
aI63
aI89
aI90
aI96
aI97
atRp95
sS'/Library/Frameworks/Python.framework/Versions/2.6/lib/python2.6/site-packages/mwlib-0.11.2-py2.6-macosx-10.3-i386.egg/mwlib/utoken.py'
p96
g3
((lp97
I133
aI8
aI9
aI10
aI11
aI13
aI88
aI30
aI231
aI288
aI33
aI170
aI172
aI173
aI174
aI175
aI176
aI53
aI52
aI286
aI59
aI185
aI223
aI60
aI61
aI62
aI63
aI64
aI66
aI67
aI68
aI69
aI70
aI71
aI72
aI73
aI75
aI76
aI77
aI78
aI79
aI80
aI81
aI82
aI83
aI212
aI85
aI86
aI87
aI216
aI89
aI90
aI91
aI220
aI221
aI94
aI95
aI96
aI97
aI98
aI99
aI100
aI101
aI102
aI178
aI104
aI106
aI107
aI109
aI93
aI113
aI118
aI121
aI123
aI84
atRp98
sS'/Library/Frameworks/Python.framework/Versions/2.6/lib/python2.6/site-packages/py-1.2.1-py2.6.egg/py/_plugin/pytest_helpconfig.py'
p99
g3
((lp100
I130
aI3
aI4
aI22
aI134
aI135
aI8
aI9
aI138
aI11
aI12
aI13
aI14
aI15
aI16
aI17
aI18
aI19
aI148
aI149
aI150
aI151
aI152
aI154
aI27
aI26
aI32
aI33
aI6
aI146
aI7
aI137
aI23
aI10
aI79
aI2
aI139
aI147
aI73
aI74
aI75
aI78
aI141
aI80
aI82
aI142
aI88
aI143
aI20
aI95
aI96
aI97
aI98
aI99
aI100
aI105
aI144
aI107
aI109
aI111
aI115
aI116
aI117
aI118
aI119
aI120
aI121
aI106
aI21
atRp101
sS'/Library/Frameworks/Python.framework/Versions/2.6/lib/python2.6/site-packages/Jinja2-2.1.1-py2.6-macosx-10.3-i386.egg/jinja2/lexer.py'
p102
g3
((lp103
I515
aI516
aI521
aI524
aI526
aI527
aI16
aI17
aI18
aI19
aI20
aI21
aI26
aI29
aI30
aI31
aI32
aI33
aI546
aI35
aI550
aI551
aI40
aI41
aI42
aI43
aI44
aI45
aI46
aI47
aI48
aI49
aI50
aI51
aI52
aI53
aI54
aI55
aI56
aI57
aI58
aI59
aI60
aI61
aI62
aI63
aI64
aI67
aI68
aI69
aI70
aI73
aI80
aI83
aI85
aI86
aI87
aI89
aI93
aI94
aI95
aI96
aI98
aI99
aI101
aI529
aI108
aI530
aI531
aI116
aI117
aI118
aI119
aI532
aI123
aI124
aI125
aI126
aI533
aI128
aI136
aI139
aI141
aI144
aI147
aI156
aI160
aI162
aI163
aI164
aI165
aI166
aI167
aI168
aI169
aI171
aI174
aI176
aI178
aI115
aI180
aI542
aI184
aI192
aI197
aI201
aI204
aI34
aI206
aI208
aI210
aI211
aI213
aI214
aI215
aI216
aI217
aI218
aI220
aI222
aI223
aI224
aI226
aI38
aI230
aI39
aI242
aI243
aI245
aI248
aI250
aI251
aI252
aI253
aI254
aI255
aI256
aI257
aI258
aI259
aI260
aI261
aI262
aI263
aI556
aI266
aI557
aI272
aI274
aI276
aI277
aI281
aI282
aI283
aI284
aI285
aI286
aI296
aI297
aI298
aI300
aI304
aI308
aI313
aI315
aI318
aI321
aI322
aI323
aI324
aI325
aI327
aI328
aI329
aI331
aI335
aI336
aI337
aI338
aI339
aI340
aI344
aI345
aI346
aI347
aI348
aI349
aI352
aI353
aI354
aI355
aI356
aI121
aI359
aI360
aI361
aI362
aI363
aI364
aI365
aI366
aI370
aI371
aI374
aI376
aI378
aI381
aI382
aI384
aI388
aI389
aI390
aI391
aI392
aI394
aI397
aI399
aI400
aI401
aI403
aI404
aI405
aI407
aI408
aI409
aI410
aI417
aI418
aI421
aI423
aI425
aI426
aI427
aI429
aI433
aI434
aI435
aI436
aI437
aI441
aI442
aI443
aI445
aI447
aI449
aI450
aI452
aI453
aI459
aI465
aI466
aI468
aI473
aI474
aI475
aI476
aI477
aI478
aI486
aI487
aI488
aI489
aI493
aI495
aI496
aI498
aI500
aI502
atRp104
sS'/Library/Frameworks/Python.framework/Versions/2.6/lib/python2.6/email/quoprimime.py'
p105
g3
((lp106
I261
aI262
aI268
aI27
aI30
aI31
aI32
aI33
aI34
aI35
aI36
aI37
aI38
aI39
aI40
aI41
aI42
aI43
aI46
aI48
aI49
aI178
aI51
aI52
aI55
aI57
aI58
aI316
aI317
aI63
aI321
aI68
aI328
aI73
aI84
aI95
aI104
aI109
aI114
aI115
atRp107
sS'/Library/Frameworks/Python.framework/Versions/2.6/lib/python2.6/site-packages/mwlib-0.11.2-py2.6-macosx-10.3-i386.egg/mwlib/wiki.py'
p108
g3
((lp109
I130
aI131
aI260
aI261
aI6
aI7
aI8
aI10
aI12
aI144
aI17
aI18
aI19
aI20
aI21
aI22
aI151
aI161
aI34
aI163
aI262
aI40
aI41
aI42
aI65
aI72
aI73
aI74
aI75
aI76
aI162
aI87
aI16
aI104
aI112
aI113
aI114
aI117
aI118
aI119
aI120
aI121
aI122
aI123
aI124
aI125
aI126
atRp110
sS'/Library/Frameworks/Python.framework/Versions/2.6/lib/python2.6/site-packages/Jinja2-2.1.1-py2.6-macosx-10.3-i386.egg/jinja2/bccache.py'
p111
g3
((lp112
I130
aI171
aI264
aI137
aI266
aI271
aI16
aI17
aI18
aI19
aI20
aI21
aI22
aI23
aI24
aI27
aI156
aI30
aI31
aI34
aI166
aI41
aI43
aI49
aI53
aI185
aI187
aI193
aI196
aI72
aI204
aI83
aI87
aI152
aI143
aI94
aI224
aI276
aI211
aI121
aI123
atRp113
sS'/Library/Frameworks/Python.framework/Versions/2.6/lib/python2.6/site-packages/mwlib-0.11.2-py2.6-macosx-10.3-i386.egg/mwlib/log.py'
p114
g3
((lp115
I6
aI7
aI9
aI10
aI11
aI14
aI17
aI18
aI19
aI22
aI25
aI26
aI27
aI29
aI30
aI31
aI34
aI35
aI39
aI42
aI45
aI48
atRp116
sS'/Library/Frameworks/Python.framework/Versions/2.6/lib/python2.6/unittest.py'
p117
g3
((lp118
I514
aI518
aI521
aI524
aI535
aI538
aI539
aI540
aI541
aI543
aI552
aI45
aI47
aI48
aI49
aI562
aI51
aI52
aI53
aI54
aI55
aI60
aI61
aI64
aI70
aI97
aI81
aI95
aI609
aI100
aI102
aI616
aI112
aI113
aI628
aI119
aI123
aI127
aI642
aI133
aI648
aI138
aI142
aI656
aI657
aI658
aI661
aI150
aI664
aI669
aI673
aI674
aI675
aI165
aI684
aI177
aI690
aI697
aI705
aI197
aI713
aI203
aI205
aI721
aI727
aI218
aI222
aI735
aI226
aI635
aI740
aI229
aI232
aI746
aI749
aI242
aI245
aI251
aI254
aI172
aI257
aI260
aI264
aI781
aI784
aI799
aI800
aI801
aI802
aI299
aI302
aI819
aI308
aI824
aI315
aI319
aI323
aI327
aI847
aI851
aI344
aI741
aI352
aI867
aI360
aI874
aI146
aI372
aI386
aI388
aI390
aI392
aI394
aI396
aI398
aI402
aI410
aI411
aI415
aI418
aI420
aI425
aI429
aI431
aI645
aI434
aI440
aI450
aI456
aI162
aI463
aI466
aI471
aI478
aI677
aI480
aI481
aI488
aI492
aI496
aI499
aI502
aI511
atRp119
sS'/Library/Frameworks/Python.framework/Versions/2.6/lib/python2.6/site-packages/mwlib-0.11.2-py2.6-macosx-10.3-i386.egg/mwlib/templ/marks.py'
p120
g3
((lp121
I2
aI3
aI4
aI5
aI6
aI8
aI11
aI12
aI13
aI15
aI16
aI18
aI19
aI22
atRp122
sS'/Library/Frameworks/Python.framework/Versions/2.6/lib/python2.6/site-packages/mwlib-0.11.2-py2.6-macosx-10.3-i386.egg/mwlib/refine/uparser.py'
p123
g3
((lp124
I66
aI5
aI6
aI7
aI9
aI12
aI13
aI14
aI15
aI16
aI17
atRp125
sS'<string>'
p126
g3
((lp127
I1
aI2
aI3
aI4
aI37
aI38
aI33
aI40
aI41
aI39
aI12
aI11
aI6
aI8
aI19
aI22
aI9
aI36
aI26
atRp128
sS'/Library/Frameworks/Python.framework/Versions/2.6/lib/python2.6/site-packages/py-1.2.1-py2.6.egg/py/_plugin/pytest_runner.py'
p129
g3
((lp130
I3
aI5
aI6
aI12
aI13
aI15
aI16
aI17
aI18
aI19
aI22
aI23
aI24
aI25
aI30
aI32
aI33
aI34
aI36
aI37
aI38
aI39
aI40
aI41
aI42
aI44
aI45
aI47
aI48
aI49
aI51
aI52
aI54
aI55
aI57
aI58
aI59
aI65
aI66
aI77
aI78
aI79
aI80
aI81
aI82
aI83
aI85
aI86
aI87
aI88
aI90
aI91
aI92
aI93
aI94
aI95
aI101
aI108
aI109
aI114
aI121
aI122
aI124
aI125
aI126
aI127
aI128
aI135
aI136
aI137
aI138
aI159
aI170
aI173
aI174
aI176
aI177
aI178
aI179
aI180
aI189
aI192
aI193
aI194
aI195
aI196
aI199
aI200
aI201
aI202
aI203
aI205
aI214
aI215
aI216
aI218
aI219
aI220
aI224
aI225
aI226
aI227
aI228
aI231
aI232
aI233
aI234
aI235
aI237
aI238
aI239
aI243
aI246
aI247
aI248
aI249
aI250
aI252
aI253
aI255
aI256
aI257
aI258
atRp131
sS'/Library/Frameworks/Python.framework/Versions/2.6/lib/python2.6/site-packages/mwlib-0.11.2-py2.6-macosx-10.3-i386.egg/mwlib/refine/compat.py'
p132
g3
((lp133
I5
aI6
aI7
aI8
aI11
aI12
aI13
aI14
aI15
aI16
aI17
aI18
aI19
aI20
aI21
aI22
aI23
aI184
aI25
aI24
aI31
atRp134
sS'/Library/Frameworks/Python.framework/Versions/2.6/lib/python2.6/site-packages/py-1.2.1-py2.6.egg/py/_path/common.py'
p135
g3
((lp136
I2
aI3
aI4
aI6
aI7
aI9
aI10
aI12
aI15
aI18
aI19
aI21
aI26
aI29
aI32
aI35
aI38
aI39
aI41
aI44
aI45
aI46
aI47
aI48
aI49
aI57
aI60
aI61
aI62
aI63
aI65
aI66
aI67
aI68
aI69
aI70
aI71
aI72
aI73
aI76
aI78
aI79
aI81
aI82
aI83
aI85
aI87
aI89
aI91
aI92
aI94
aI96
aI97
aI99
aI101
aI102
aI104
aI108
aI110
aI122
aI135
aI143
aI154
aI158
aI171
aI172
aI173
aI175
aI179
aI181
aI182
aI183
aI186
aI187
aI191
aI192
aI193
aI195
aI200
aI201
aI202
aI204
aI205
aI206
aI209
aI210
aI211
aI212
aI213
aI214
aI215
aI216
aI219
aI223
aI224
aI225
aI226
aI227
aI228
aI229
aI230
aI231
aI232
aI233
aI235
aI239
aI240
aI241
aI243
aI244
aI246
aI250
aI257
aI263
aI296
aI297
aI298
aI301
aI303
aI307
aI308
aI309
aI310
aI325
aI326
aI327
aI331
aI332
atRp137
sS'/Library/Frameworks/Python.framework/Versions/2.6/lib/python2.6/site-packages/py-1.2.1-py2.6.egg/py/_path/__init__.py'
p138
g3
((lp139
I1
atRp140
sS'/Users/martinbudden/Documents/github/epub/epub/templates/main.xml'
p141
g3
((lp142
I1
aI2
aI3
aI5
aI6
aI8
aI9
aI10
aI11
aI12
aI14
aI15
aI16
aI17
aI19
aI20
aI21
aI22
aI25
aI26
atRp143
sS'/Library/Frameworks/Python.framework/Versions/2.6/lib/python2.6/dis.py'
p144
g3
((lp145
I1
aI3
aI4
aI6
aI199
aI9
aI10
aI7
aI12
aI109
aI110
aI177
aI50
aI149
aI151
aI60
aI222
atRp146
sS'/Library/Frameworks/Python.framework/Versions/2.6/lib/python2.6/stat.py'
p147
g3
((lp148
I56
aI41
aI50
aI25
atRp149
sS'/Library/Frameworks/Python.framework/Versions/2.6/lib/python2.6/encodings/unicode_escape.py'
p150
g3
((lp151
I8
aI9
aI13
aI17
aI18
aI20
aI21
aI24
aI25
aI28
aI29
aI31
aI32
aI36
aI37
aI38
aI39
aI40
aI41
aI42
aI43
aI44
atRp152
sS'/Library/Frameworks/Python.framework/Versions/2.6/lib/python2.6/site-packages/py-1.2.1-py2.6.egg/py/_plugin/pytest_recwarn.py'
p153
g3
((lp154
I33
aI35
aI36
aI38
aI81
aI80
aI48
aI49
aI51
aI117
aI104
aI88
aI89
aI120
atRp155
sS'/Library/Frameworks/Python.framework/Versions/2.6/lib/python2.6/site-packages/py-1.2.1-py2.6.egg/py/_plugin/pytest_pastebin.py'
p156
g3
((lp157
I21
aI22
aI24
aI25
aI26
aI27
aI29
aI30
aI31
aI32
aI33
aI34
aI36
aI37
aI38
aI39
aI48
aI49
aI60
aI63
aI64
aI65
atRp158
sS'/Library/Frameworks/Python.framework/Versions/2.6/lib/python2.6/site-packages/figleaf-0.6.1-py2.6.egg/figleaf/__init__.py'
p159
g3
((lp160
I234
aI235
atRp161
sS'/Library/Frameworks/Python.framework/Versions/2.6/lib/python2.6/_abcoll.py'
p162
g3
((lp163
I89
aI86
atRp164
sS'/Library/Frameworks/Python.framework/Versions/2.6/lib/python2.6/site-packages/Jinja2-2.1.1-py2.6-macosx-10.3-i386.egg/jinja2/parser.py'
p165
g3
((lp166
I512
aI256
aI514
aI515
aI516
aI517
aI518
aI520
aI10
aI11
aI12
aI526
aI15
aI16
aI17
aI18
aI532
aI21
aI24
aI26
aI27
aI28
aI29
aI30
aI31
aI544
aI33
aI34
aI37
aI39
aI559
aI48
aI561
aI562
aI563
aI52
aI53
aI566
aI568
aI571
aI572
aI522
aI574
aI575
aI576
aI65
aI66
aI579
aI68
aI69
aI79
aI580
aI601
aI90
aI94
aI95
aI97
aI98
aI99
aI101
aI529
aI109
aI111
aI112
aI113
aI114
aI115
aI116
aI117
aI119
aI120
aI121
aI122
aI125
aI126
aI128
aI149
aI150
aI151
aI152
aI153
aI154
aI156
aI157
aI158
aI159
aI161
aI679
aI170
aI175
aI182
aI699
aI32
aI632
aI730
aI731
aI732
aI733
aI397
aI735
aI736
aI737
aI738
aI739
aI741
aI742
aI743
aI744
aI745
aI746
aI235
aI748
aI749
aI750
aI751
aI752
aI753
aI754
aI755
aI756
aI757
aI758
aI759
aI249
aI762
aI763
aI767
aI768
aI770
aI772
aI773
aI774
aI264
aI63
aI273
aI274
aI282
aI286
aI287
aI288
aI560
aI291
aI292
aI295
aI297
aI391
aI50
aI302
aI303
aI304
aI306
aI307
aI308
aI309
aI564
aI317
aI319
aI320
aI321
aI322
aI54
aI326
aI328
aI329
aI330
aI331
aI335
aI56
aI338
aI339
aI340
aI341
aI342
aI343
aI346
aI348
aI523
aI353
aI355
aI356
aI359
aI360
aI361
aI362
aI367
aI369
aI370
aI371
aI372
aI377
aI379
aI380
aI381
aI382
aI385
aI386
aI747
aI389
aI390
aI577
aI392
aI578
aI399
aI400
aI401
aI402
aI407
aI409
aI410
aI411
aI412
aI581
aI417
aI419
aI420
aI421
aI422
aI427
aI429
aI430
aI431
aI432
aI437
aI439
aI440
aI441
aI442
aI446
aI450
aI454
aI456
aI457
aI458
aI459
aI462
aI465
aI466
aI467
aI468
aI469
aI470
aI471
aI474
aI337
aI488
aI489
aI490
aI492
aI493
aI221
aI528
aI508
aI509
aI510
aI511
atRp167
sS'/Library/Frameworks/Python.framework/Versions/2.6/lib/python2.6/posixpath.py'
p168
g3
((lp169
I320
aI131
aI132
aI135
aI172
aI323
aI152
aI153
aI154
aI44
aI173
aI321
aI52
aI310
aI312
aI315
aI316
aI318
aI63
aI64
aI65
aI322
aI67
aI325
aI70
aI71
aI328
aI329
aI330
aI331
aI332
aI337
aI82
aI83
aI84
aI85
aI86
aI104
aI338
aI319
aI339
aI119
aI120
aI121
aI122
aI123
atRp170
sS'/Library/Frameworks/Python.framework/Versions/2.6/lib/python2.6/htmlentitydefs.py'
p171
g3
((lp172
I1
aI4
aI5
aI6
aI7
aI8
aI9
aI10
aI11
aI12
aI13
aI14
aI15
aI16
aI17
aI18
aI19
aI20
aI21
aI22
aI23
aI24
aI25
aI26
aI27
aI28
aI29
aI30
aI31
aI32
aI33
aI34
aI35
aI36
aI37
aI38
aI39
aI40
aI41
aI42
aI43
aI44
aI45
aI46
aI47
aI48
aI49
aI50
aI51
aI52
aI53
aI54
aI55
aI56
aI57
aI58
aI59
aI60
aI61
aI62
aI63
aI64
aI65
aI66
aI67
aI68
aI69
aI70
aI71
aI72
aI73
aI74
aI75
aI76
aI77
aI78
aI79
aI80
aI81
aI82
aI83
aI84
aI85
aI86
aI87
aI88
aI89
aI90
aI91
aI92
aI93
aI94
aI95
aI96
aI97
aI98
aI99
aI100
aI101
aI102
aI103
aI104
aI105
aI106
aI107
aI108
aI109
aI110
aI111
aI112
aI113
aI114
aI115
aI116
aI117
aI118
aI119
aI120
aI121
aI122
aI123
aI124
aI125
aI126
aI127
aI128
aI129
aI130
aI131
aI132
aI133
aI134
aI135
aI136
aI137
aI138
aI139
aI140
aI141
aI142
aI143
aI144
aI145
aI146
aI147
aI148
aI149
aI150
aI151
aI152
aI153
aI154
aI155
aI156
aI157
aI158
aI159
aI160
aI161
aI162
aI163
aI164
aI165
aI166
aI167
aI168
aI169
aI170
aI171
aI172
aI173
aI174
aI175
aI176
aI177
aI178
aI179
aI180
aI181
aI182
aI183
aI184
aI185
aI186
aI187
aI188
aI189
aI190
aI191
aI192
aI193
aI194
aI195
aI196
aI197
aI198
aI199
aI200
aI201
aI202
aI203
aI204
aI205
aI206
aI207
aI208
aI209
aI210
aI211
aI212
aI213
aI214
aI215
aI216
aI217
aI218
aI219
aI220
aI221
aI222
aI223
aI224
aI225
aI226
aI227
aI228
aI229
aI230
aI231
aI232
aI233
aI234
aI235
aI236
aI237
aI238
aI239
aI240
aI241
aI242
aI243
aI244
aI245
aI246
aI247
aI248
aI249
aI250
aI251
aI252
aI253
aI254
aI255
aI256
aI260
aI264
aI266
aI267
aI268
aI269
aI271
aI273
atRp173
sS'/Users/martinbudden/Documents/github/epub/epub/templates/container.xml'
p174
g3
((lp175
I1
aI2
aI3
aI5
aI6
aI8
aI9
aI12
aI13
atRp176
sS'/Library/Frameworks/Python.framework/Versions/2.6/lib/python2.6/encodings/utf_8.py'
p177
g3
((lp178
I8
aI9
aI13
aI15
aI16
aI18
aI19
aI22
aI23
aI25
aI26
aI28
aI29
aI33
aI34
aI35
aI36
aI37
aI38
aI39
aI40
aI41
atRp179
sS'/Library/Frameworks/Python.framework/Versions/2.6/lib/python2.6/uu.py'
p180
g3
((lp181
I33
aI34
aI35
aI37
aI39
aI40
aI42
aI83
aI148
aI185
aI31
atRp182
sS'/Library/Frameworks/Python.framework/Versions/2.6/lib/python2.6/xml/sax/expatreader.py'
p183
g3
((lp184
I4
aI6
aI8
aI9
aI10
aI11
aI12
aI13
aI16
aI17
aI19
aI21
aI22
aI26
aI28
aI30
aI31
aI36
aI37
aI42
aI43
aI44
aI48
aI53
aI54
aI55
aI57
aI63
aI69
aI75
aI84
aI85
aI87
aI88
aI89
aI90
aI91
aI92
aI93
aI94
aI95
aI96
aI100
aI102
aI104
aI105
aI106
aI107
aI109
aI110
aI115
aI116
aI117
aI120
aI132
aI162
aI180
aI196
aI197
aI198
aI199
aI200
aI202
aI207
aI208
aI209
aI211
aI213
aI214
aI217
aI218
aI219
aI221
aI223
aI225
aI226
aI228
aI244
aI245
aI252
aI253
aI254
aI255
aI257
aI258
aI259
aI260
aI261
aI263
aI264
aI269
aI270
aI271
aI275
aI276
aI278
aI279
aI283
aI284
aI286
aI288
aI289
aI291
aI293
aI296
aI297
aI300
aI301
aI303
aI304
aI306
aI340
aI352
aI356
aI359
aI362
aI365
aI368
aI371
aI374
aI396
aI404
aI405
aI409
atRp185
sS'/Library/Frameworks/Python.framework/Versions/2.6/lib/python2.6/tokenize.py'
p186
g3
((lp187
I23
aI25
aI27
aI29
aI30
aI32
aI33
aI34
aI35
aI36
aI38
aI39
aI40
aI41
aI42
aI44
aI45
aI46
aI48
aI49
aI50
aI51
aI53
aI54
aI55
aI56
aI57
aI58
aI59
aI60
aI61
aI62
aI63
aI66
aI68
aI70
aI72
aI73
aI75
aI76
aI81
aI82
aI83
aI84
aI86
aI87
aI88
aI90
aI91
aI94
aI95
aI96
aI97
aI98
aI99
aI101
aI102
aI103
aI104
aI105
aI106
aI107
aI108
aI109
aI110
aI111
aI112
aI113
aI114
aI115
aI116
aI117
aI118
aI119
aI120
aI122
aI123
aI130
aI131
aI132
aI133
aI140
aI141
aI143
aI145
aI147
aI149
aI155
aI174
aI178
aI180
aI185
aI192
aI206
aI243
aI264
aI412
atRp188
sS'/Users/martinbudden/Documents/github/epub/epub/templates/titlepage.css'
p189
g3
((lp190
I1
aI2
aI3
aI5
aI7
aI9
aI10
atRp191
sS'/Library/Frameworks/Python.framework/Versions/2.6/lib/python2.6/xml/sax/_exceptions.py'
p192
g3
((lp193
I1
aI2
aI131
aI5
aI9
aI17
aI3
aI22
aI23
aI24
aI26
aI30
aI34
aI38
aI46
aI57
aI59
aI61
aI62
aI19
aI68
aI69
aI70
aI72
aI75
aI77
aI79
aI81
aI85
aI87
aI89
aI91
aI92
aI93
aI94
aI95
aI97
aI98
aI100
aI105
aI110
aI115
aI121
aI125
atRp194
sS'/Library/Frameworks/Python.framework/Versions/2.6/lib/python2.6/gettext.py'
p195
g3
((lp196
I131
aI132
aI133
aI134
aI135
aI137
aI138
aI139
aI528
aI529
aI146
aI531
aI532
aI151
aI152
aI153
aI158
aI159
aI160
aI161
aI162
aI163
aI164
aI165
aI166
aI167
aI168
aI169
aI426
aI427
aI428
aI429
aI430
aI431
aI432
aI435
aI436
aI437
aI438
aI439
aI441
aI442
aI445
aI446
aI447
aI566
aI454
aI463
aI464
aI465
aI466
aI467
aI469
aI144
aI145
aI423
aI530
aI424
aI425
atRp197
sS'/Library/Frameworks/Python.framework/Versions/2.6/lib/python2.6/site-packages/py-1.2.1-py2.6.egg/py/_path/local.py'
p198
g3
((lp199
I512
aI3
aI4
aI5
aI518
aI519
aI8
aI521
aI10
aI11
aI524
aI14
aI15
aI16
aI529
aI18
aI24
aI26
aI545
aI35
aI36
aI6
aI520
aI50
aI94
aI54
aI58
aI96
aI71
aI73
aI75
aI565
aI81
aI87
aI89
aI92
aI93
aI606
aI95
aI608
aI97
aI98
aI99
aI100
aI101
aI614
aI103
aI105
aI106
aI619
aI108
aI109
aI111
aI624
aI626
aI118
aI127
aI128
aI641
aI643
aI132
aI133
aI134
aI135
aI136
aI140
aI141
aI143
aI144
aI146
aI147
aI148
aI149
aI152
aI154
aI155
aI157
aI158
aI160
aI112
aI114
aI175
aI197
aI33
aI208
aI209
aI210
aI211
aI212
aI215
aI216
aI217
aI218
aI219
aI221
aI223
aI225
aI226
aI227
aI228
aI229
aI230
aI232
aI748
aI750
aI243
aI244
aI246
aI247
aI248
aI249
aI250
aI251
aI252
aI254
aI255
aI256
aI258
aI259
aI260
aI262
aI263
aI264
aI265
aI266
aI269
aI271
aI276
aI277
aI278
aI279
aI280
aI281
aI282
aI283
aI287
aI288
aI289
aI293
aI294
aI295
aI296
aI297
aI298
aI299
aI301
aI305
aI309
aI311
aI312
aI313
aI314
aI315
aI316
aI317
aI319
aI323
aI327
aI349
aI353
aI361
aI12
aI367
aI384
aI400
aI644
aI414
aI416
aI418
aI422
aI435
aI441
aI445
aI449
aI452
aI454
aI456
aI129
aI462
aI463
aI464
aI465
aI466
aI467
aI468
aI469
aI470
aI476
aI477
aI478
aI480
aI482
aI494
aI500
aI766
aI503
aI504
aI505
aI506
aI507
aI508
aI509
aI510
aI511
atRp200
sS'/Library/Frameworks/Python.framework/Versions/2.6/lib/python2.6/site-packages/figleaf-0.6.1-py2.6.egg/figleaf/internals.py'
p201
g3
((lp202
I98
aI99
atRp203
sS'/Library/Frameworks/Python.framework/Versions/2.6/lib/python2.6/site-packages/py-1.2.1-py2.6.egg/py/_test/session.py'
p204
g3
((lp205
I6
aI8
aI9
aI12
aI13
aI15
aI16
aI17
aI18
aI19
aI20
aI21
aI22
aI23
aI25
aI27
aI28
aI29
aI30
aI31
aI34
aI35
aI36
aI37
aI38
aI39
aI41
aI42
aI43
aI44
aI45
aI46
aI47
aI48
aI51
aI53
aI54
aI55
aI72
aI73
aI74
aI75
aI77
aI79
aI81
aI82
aI86
aI88
aI90
aI91
aI92
aI95
aI97
aI98
aI99
aI100
aI101
aI102
aI103
aI105
aI106
aI115
aI117
aI118
atRp206
sS'/Library/Frameworks/Python.framework/Versions/2.6/lib/python2.6/site-packages/py-1.2.1-py2.6.egg/py/_io/__init__.py'
p207
g3
((lp208
I1
atRp209
sS'/Library/Frameworks/Python.framework/Versions/2.6/lib/python2.6/opcode.py'
p210
g3
((lp211
I5
aI7
aI8
aI9
aI12
aI14
aI15
aI16
aI17
aI18
aI19
aI20
aI22
aI23
aI24
aI25
aI27
aI28
aI29
aI31
aI32
aI33
aI35
aI36
aI37
aI39
aI40
aI41
aI46
aI47
aI48
aI49
aI50
aI51
aI53
aI54
aI55
aI56
aI57
aI59
aI61
aI62
aI63
aI64
aI65
aI66
aI67
aI68
aI69
aI70
aI71
aI72
aI73
aI74
aI75
aI76
aI78
aI79
aI80
aI81
aI83
aI84
aI85
aI86
aI88
aI89
aI90
aI91
aI92
aI93
aI94
aI95
aI96
aI97
aI98
aI99
aI100
aI101
aI102
aI104
aI105
aI106
aI107
aI108
aI109
aI110
aI111
aI112
aI113
aI114
aI115
aI116
aI117
aI118
aI119
aI120
aI121
aI122
aI123
aI125
aI127
aI128
aI129
aI130
aI132
aI133
aI134
aI135
aI136
aI137
aI138
aI139
aI140
aI141
aI142
aI143
aI144
aI145
aI146
aI147
aI149
aI150
aI151
aI152
aI154
aI156
aI157
aI158
aI159
aI161
aI162
aI163
aI164
aI165
aI166
aI168
aI169
aI170
aI171
aI172
aI173
aI174
aI175
aI176
aI177
aI178
aI180
aI181
aI182
aI183
aI184
aI186
atRp212
sS'/Library/Frameworks/Python.framework/Versions/2.6/lib/python2.6/warnings.py'
p213
g3
((lp214
I352
aI359
aI364
aI362
aI332
aI365
aI334
aI333
aI19
aI346
aI348
aI349
aI350
aI351
atRp215
sS'/Library/Frameworks/Python.framework/Versions/2.6/lib/python2.6/httplib.py'
p216
g3
((lp217
I1024
aI513
aI86
aI1031
aI665
aI1035
aI1039
aI88
aI1194
aI1114
aI545
aI191
aI1201
aI1067
aI1077
aI1078
aI87
aI140
aI1085
aI1087
aI1088
aI67
aI1093
aI70
aI71
aI72
aI73
aI74
aI75
aI1102
aI80
aI81
aI85
aI1110
aI599
aI1112
aI89
aI90
aI1115
aI92
aI93
aI95
aI685
aI98
aI99
aI100
aI634
aI104
aI105
aI1130
aI109
aI622
aI701
aI112
aI113
aI114
aI115
aI116
aI117
aI1142
aI1143
aI120
aI121
aI1146
aI123
aI124
aI125
aI126
aI639
aI640
aI641
aI642
aI643
aI1156
aI1157
aI134
aI1159
aI1160
aI137
aI138
aI139
aI1164
aI141
aI142
aI143
aI144
aI145
aI146
aI147
aI660
aI1173
aI150
aI1176
aI153
aI154
aI1179
aI156
aI157
aI1182
aI1183
aI160
aI1185
aI1186
aI163
aI164
aI165
aI1191
aI168
aI1193
aI170
aI171
aI172
aI173
aI175
aI176
aI177
aI178
aI179
aI180
aI181
aI182
aI1208
aI185
aI186
aI1211
aI188
aI189
aI190
aI637
aI192
aI193
aI194
aI195
aI1220
aI709
aI198
aI199
aI200
aI201
aI203
aI204
aI205
aI206
aI207
aI208
aI212
aI214
aI1145
aI216
aI1242
aI719
aI122
aI225
aI1250
aI230
aI1148
aI1261
aI1149
aI756
aI766
aI196
aI129
aI111
aI130
aI131
aI132
aI133
aI197
aI646
aI636
aI110
aI1326
aI136
aI319
aI1153
aI329
aI135
aI347
aI1082
aI1083
aI1154
aI1137
aI873
aI1170
aI106
aI884
aI148
aI894
aI149
aI384
aI1174
aI906
aI749
aI627
aI1177
aI184
aI69
aI155
aI1180
aI940
aI645
aI158
aI159
aI1140
aI467
aI78
aI988
aI989
aI991
aI992
aI1104
aI994
aI996
aI998
aI167
aI497
aI1010
aI187
aI502
aI169
aI682
atRp218
sS'/Library/Frameworks/Python.framework/Versions/2.6/bin/py.test'
p219
g3
((lp220
I8
aI3
aI4
aI5
aI7
atRp221
sS'/Library/Frameworks/Python.framework/Versions/2.6/lib/python2.6/xml/etree/__init__.py'
p222
g3
((lp223
I1
atRp224
sS'/Library/Frameworks/Python.framework/Versions/2.6/lib/python2.6/email/mime/__init__.py'
p225
g3
((lp226
I1
atRp227
sS'/Library/Frameworks/Python.framework/Versions/2.6/lib/python2.6/xml/sax/handler.py'
p228
g3
((lp229
I256
aI214
aI134
aI10
aI12
aI273
aI22
aI329
aI152
aI281
aI282
aI283
aI284
aI285
aI158
aI32
aI36
aI262
aI294
aI40
aI299
aI47
aI305
aI52
aI30
aI182
aI55
aI312
aI57
aI318
aI193
aI54
aI268
aI78
aI208
aI337
aI338
aI339
aI340
aI341
aI342
aI87
aI217
aI280
aI223
aI96
aI80
aI228
aI38
aI230
aI168
aI140
aI243
aI212
aI119
aI249
aI126
atRp230
sS'/Library/Frameworks/Python.framework/Versions/2.6/lib/python2.6/rfc822.py'
p231
g3
((lp232
I320
aI386
aI747
aI772
aI390
aI844
aI209
aI779
aI770
aI782
aI785
aI403
aI661
aI535
aI461
aI794
aI801
aI547
aI293
aI845
aI295
aI424
aI809
aI679
aI841
aI943
aI816
aI270
aI435
aI820
aI439
aI952
aI88
aI443
aI842
aI446
aI831
aI832
aI833
aI450
aI829
aI846
aI197
aI454
aI71
aI76
aI74
aI843
aI716
aI333
aI78
aI77
aI720
aI977
aI82
aI724
aI526
aI86
aI472
aI250
aI285
aI219
aI605
aI506
aI482
aI355
aI228
aI487
aI80
aI935
aI728
aI850
aI367
aI496
aI116
aI830
aI771
aI122
aI508
aI637
aI382
aI85
atRp233
sS'/Library/Frameworks/Python.framework/Versions/2.6/lib/python2.6/site-packages/mwlib-0.11.2-py2.6-macosx-10.3-i386.egg/mwlib/metabook.py'
p234
g3
((lp235
I32
aI3
aI4
aI165
aI6
aI10
aI14
aI49
aI18
aI74
aI85
aI185
aI153
aI5
aI61
aI197
atRp236
sS'/Library/Frameworks/Python.framework/Versions/2.6/lib/python2.6/optparse.py'
p237
g3
((lp238
I1024
aI1025
aI1026
aI1027
aI1029
aI1030
aI1031
aI1032
aI1033
aI1035
aI1038
aI1039
aI687
aI689
aI563
aI564
aI565
aI566
aI569
aI576
aI577
aI1091
aI1092
aI1093
aI1094
aI583
aI584
aI1097
aI1098
aI589
aI590
aI594
aI595
aI600
aI602
aI607
aI610
aI611
aI612
aI613
aI615
aI616
aI618
aI619
aI1213
aI1214
aI630
aI631
aI632
aI636
aI637
aI638
aI643
aI650
aI651
aI652
aI1389
aI656
aI659
aI661
aI666
aI667
aI670
aI674
aI681
aI682
aI683
aI1196
aI1197
aI1198
aI1199
aI1200
aI1201
aI1202
aI1203
aI1204
aI1205
aI694
aI1207
aI700
aI701
aI702
aI703
aI1216
aI586
aI709
aI205
aI206
aI207
aI208
aI209
aI210
aI211
aI212
aI213
aI214
aI215
aI1240
aI217
aI218
aI219
aI1244
aI1245
aI222
aI225
aI1253
aI1255
aI1257
aI1259
aI1260
aI1264
aI1265
aI1266
aI756
aI757
aI759
aI1272
aI724
aI1274
aI1321
aI1278
aI767
aI769
aI1238
aI1239
aI216
aI1308
aI1309
aI1310
aI1311
aI1314
aI1243
aI1318
aI1319
aI1320
aI220
aI1322
aI1323
aI1325
aI221
aI1332
aI1334
aI1335
aI1336
aI1338
aI1343
aI1344
aI833
aI838
aI839
aI840
aI1357
aI1360
aI1376
aI1377
aI1378
aI728
aI370
aI1390
aI1391
aI1393
aI1394
aI371
aI1398
aI1399
aI1206
aI1412
aI1424
aI1425
aI1429
aI1432
aI1435
aI1439
aI1440
aI1441
aI937
aI939
aI940
aI941
aI432
aI433
aI947
aI948
aI949
aI955
aI956
aI957
aI960
aI962
aI765
aI965
aI731
aI981
aI982
aI983
aI985
aI986
aI989
aI766
aI1277
aI1011
aI1012
aI1013
aI1014
aI1015
aI1020
aI1022
aI1023
atRp239
sS'/Library/Frameworks/Python.framework/Versions/2.6/lib/python2.6/site-packages/py-1.2.1-py2.6.egg/py/_plugin/pytest_assertion.py'
p240
g3
((lp241
I1
aI2
aI4
aI5
aI6
aI7
aI8
aI10
aI14
aI15
aI16
aI17
aI19
aI20
aI21
aI22
aI24
aI25
aI26
aI27
aI28
atRp242
sS'/Library/Frameworks/Python.framework/Versions/2.6/lib/python2.6/site-packages/py-1.2.1-py2.6.egg/py/_code/__init__.py'
p243
g3
((lp244
I1
atRp245
sS'/Library/Frameworks/Python.framework/Versions/2.6/lib/python2.6/weakref.py'
p246
g3
((lp247
I259
aI133
aI6
aI139
aI12
aI269
aI14
aI344
aI146
aI276
aI23
aI26
aI28
aI29
aI30
aI33
aI290
aI347
aI326
aI38
aI167
aI284
aI45
aI302
aI206
aI177
aI308
aI53
aI311
aI314
aI60
aI189
aI262
aI67
aI198
aI158
aI74
aI77
aI334
aI80
aI210
aI341
aI215
aI88
aI219
aI208
aI228
aI101
aI230
aI109
aI239
aI242
aI115
aI245
aI118
aI248
aI121
aI251
atRp248
sS'/Library/Frameworks/Python.framework/Versions/2.6/lib/python2.6/hashlib.py'
p249
g3
((lp250
I128
aI55
aI58
aI59
aI62
aI65
aI66
aI67
aI68
aI69
aI70
aI71
aI72
aI73
aI74
aI75
aI76
aI77
aI78
aI83
aI90
aI104
aI105
aI107
aI109
aI110
aI111
aI114
aI115
aI117
aI118
aI119
aI121
aI126
aI127
atRp251
sS'/Library/Frameworks/Python.framework/Versions/2.6/lib/python2.6/json/encoder.py'
p252
g3
((lp253
I2
aI4
aI5
aI7
aI8
aI12
aI14
aI15
aI16
aI17
aI18
aI19
aI20
aI21
aI22
aI23
aI24
aI26
aI27
aI284
aI29
aI31
aI164
aI165
aI166
aI167
aI168
aI169
aI170
aI171
aI173
aI175
aI177
aI52
aI180
aI61
aI322
aI326
aI81
aI82
aI213
aI87
aI346
aI370
aI115
aI116
aI117
aI118
aI119
aI120
aI121
atRp254
sS'/Library/Frameworks/Python.framework/Versions/2.6/lib/python2.6/site-packages/py-1.2.1-py2.6.egg/py/_error.py'
p255
g3
((lp256
I4
aI5
aI7
aI8
aI16
aI22
aI23
aI24
aI25
aI26
aI27
aI28
aI31
aI35
aI36
aI37
aI39
aI40
aI41
aI42
aI43
aI45
aI46
aI47
aI48
aI49
aI50
aI51
aI52
aI53
aI54
aI56
aI58
aI59
aI60
aI61
aI63
aI64
aI65
aI67
aI68
aI69
aI70
aI72
aI74
aI80
aI83
atRp257
sS'/Library/Frameworks/Python.framework/Versions/2.6/lib/python2.6/site-packages/mwlib-0.11.2-py2.6-macosx-10.3-i386.egg/mwlib/templ/parser.py'
p258
g3
((lp259
I5
aI262
aI7
aI9
aI10
aI139
aI15
aI185
aI6
aI294
aI53
aI55
aI56
aI57
aI59
aI134
aI67
aI70
aI74
aI87
aI221
aI166
aI102
aI117
aI124
atRp260
sS'/Library/Frameworks/Python.framework/Versions/2.6/lib/python2.6/site-packages/mwlib-0.11.2-py2.6-macosx-10.3-i386.egg/mwlib/parser/nodes.py'
p261
g3
((lp262
I5
aI7
aI8
aI10
aI12
aI16
aI20
aI23
aI28
aI31
aI37
aI42
aI47
aI52
aI58
aI59
aI60
aI61
aI62
aI64
aI74
aI76
aI77
aI79
aI80
aI82
aI83
aI85
aI86
aI88
aI100
aI102
aI103
aI105
aI117
aI119
aI127
aI129
aI139
aI141
aI152
aI154
aI155
aI157
aI158
aI160
aI161
aI163
aI164
aI166
aI199
aI201
aI202
aI203
aI207
aI212
aI219
aI221
aI225
aI227
aI231
aI233
aI241
aI245
aI254
aI256
aI266
aI268
aI280
aI282
aI283
aI284
aI285
aI286
aI287
aI288
aI289
aI290
aI291
aI292
aI294
aI297
aI302
aI304
aI307
aI311
aI312
atRp263
sS'/Library/Frameworks/Python.framework/Versions/2.6/lib/python2.6/encodings/mac_roman.py'
p264
g3
((lp265
I3
aI5
aI9
aI11
aI14
aI15
aI17
aI18
aI21
aI22
aI25
aI26
aI28
aI29
aI33
aI34
aI35
aI36
aI37
aI38
aI39
aI40
aI41
aI48
aI307
atRp266
sS'/Library/Frameworks/Python.framework/Versions/2.6/lib/python2.6/socket.py'
p267
g3
((lp268
I64
aI261
aI263
aI265
aI219
aI274
aI147
aI148
aI302
aI151
aI46
aI281
aI154
aI86
aI159
aI160
aI162
aI163
aI164
aI220
aI65
aI167
aI168
aI476
aI44
aI178
aI174
aI47
aI176
aI49
aI50
aI180
aI479
aI55
aI312
aI315
aI192
aI288
aI194
aI197
aI199
aI205
aI119
aI461
aI79
aI81
aI82
aI291
aI212
aI213
aI214
aI87
aI216
aI218
aI91
aI92
aI222
aI95
aI224
aI225
aI98
aI227
aI228
aI485
aI230
aI487
aI232
aI233
aI235
aI146
aI187
aI375
aI149
atRp269
sS'/Library/Frameworks/Python.framework/Versions/2.6/lib/python2.6/os.py'
p270
g3
((lp271
I513
aI266
aI273
aI276
aI282
aI283
aI284
aI285
aI287
aI289
aI290
aI291
aI292
aI293
aI294
aI39
aI296
aI36
aI37
aI38
aI295
aI753
aI754
aI757
aI758
aI759
aI760
aI762
aI763
atRp272
sS'/Library/Frameworks/Python.framework/Versions/2.6/lib/python2.6/site-packages/py-1.2.1-py2.6.egg/py/_io/capture.py'
p273
g3
((lp274
I1
aI2
aI3
aI4
aI6
aI7
aI11
aI12
aI13
aI20
aI21
aI29
aI30
aI32
aI38
aI39
aI43
aI44
aI45
aI46
aI48
aI51
aI52
aI53
aI55
aI58
aI59
aI60
aI62
aI65
aI66
aI67
aI68
aI69
aI71
aI82
aI91
aI92
aI97
aI98
aI99
aI105
aI106
aI107
aI110
aI111
aI112
aI113
aI115
aI116
aI118
aI119
aI122
aI124
aI128
aI129
aI131
aI132
aI145
aI147
aI164
aI166
aI167
aI168
aI169
aI170
aI171
aI172
aI174
aI176
aI177
aI178
aI181
aI185
aI186
aI187
aI188
aI189
aI190
aI192
aI193
aI194
aI195
aI196
aI197
aI198
aI199
aI200
aI201
aI202
aI203
aI204
aI205
aI206
aI207
aI208
aI210
aI211
aI214
aI215
aI216
aI218
aI220
aI221
aI224
aI225
aI228
aI229
aI230
aI231
aI232
aI233
aI235
aI237
aI238
aI239
aI240
aI241
aI242
aI243
aI244
aI245
aI246
aI247
aI249
aI254
aI255
aI260
aI280
aI307
aI318
aI324
aI325
aI327
aI328
aI329
aI331
aI333
aI336
aI337
atRp275
sS'/Library/Frameworks/Python.framework/Versions/2.6/lib/python2.6/token.py'
p276
g3
((lp277
I3
aI13
aI14
aI15
aI16
aI17
aI18
aI19
aI20
aI21
aI22
aI23
aI24
aI25
aI26
aI27
aI28
aI29
aI30
aI31
aI32
aI33
aI34
aI35
aI36
aI37
aI38
aI39
aI40
aI41
aI42
aI43
aI44
aI45
aI46
aI47
aI48
aI49
aI50
aI51
aI52
aI53
aI54
aI55
aI56
aI57
aI58
aI59
aI60
aI61
aI62
aI63
aI64
aI65
aI66
aI67
aI70
aI71
aI72
aI73
aI74
aI77
aI141
aI80
aI83
aI87
atRp278
sS'/Library/Frameworks/Python.framework/Versions/2.6/lib/python2.6/site-packages/py-1.2.1-py2.6.egg/py/_code/_assertionnew.py'
p279
g3
((lp280
I4
aI6
aI7
aI9
aI10
aI140
aI13
aI143
aI286
aI147
aI277
aI137
aI196
aI30
aI32
aI161
aI36
aI37
aI39
aI44
aI94
aI311
aI184
aI57
aI62
aI324
aI79
aI77
aI78
aI207
aI80
aI81
aI82
aI83
aI84
aI85
aI86
aI87
aI88
aI89
aI90
aI91
aI92
aI93
aI222
aI95
aI96
aI97
aI98
aI101
aI102
aI103
aI104
aI105
aI109
aI110
aI112
aI115
atRp281
sS'/Library/Frameworks/Python.framework/Versions/2.6/lib/python2.6/site-packages/py-1.2.1-py2.6.egg/py/_test/outcome.py'
p282
g3
((lp283
I132
aI133
aI134
aI135
aI8
aI10
aI13
aI14
aI18
aI22
aI24
aI25
aI27
aI30
aI5
aI32
aI33
aI35
aI36
aI41
aI42
aI43
aI49
aI54
aI63
aI68
aI7
aI107
aI136
atRp284
sS'/Library/Frameworks/Python.framework/Versions/2.6/lib/python2.6/io.py'
p285
g3
((lp286
I1538
aI1028
aI518
aI1031
aI1865
aI1452
aI522
aI528
aI1041
aI1340
aI1859
aI1467
aI35
aI550
aI1577
aI1578
aI556
aI558
aI48
aI49
aI1587
aI55
aI56
aI57
aI1594
aI1083
aI60
aI778
aI62
aI63
aI64
aI67
aI70
aI72
aI585
aI74
aI76
aI1101
aI81
aI82
aI595
aI603
aI1418
aI1119
aI611
aI1125
aI276
aI620
aI1135
aI624
aI628
aI1143
aI1656
aI633
aI1146
aI1149
aI1663
aI1152
aI1155
aI1158
aI1217
aI648
aI1161
aI650
aI1165
aI1389
aI1168
aI1173
aI1476
aI363
aI1181
aI670
aI1184
aI1335
aI1189
aI1198
aI1523
aI1847
aI1204
aI693
aI1140
aI1722
aI1211
aI705
aI1221
aI712
aI1225
aI714
aI1229
aI1742
aI719
aI722
aI58
aI725
aI1238
aI889
aI314
aI1245
aI1247
aI739
aI742
aI1255
aI1259
aI1263
aI752
aI755
aI1270
aI761
aI1275
aI765
aI257
aI259
aI260
aI1286
aI775
aI266
aI1751
aI1292
aI1293
aI782
aI784
aI273
aI274
aI788
aI1390
aI280
aI281
aI795
aI284
aI1107
aI1072
aI802
aI1544
aI391
aI818
aI1838
aI1328
aI904
aI1842
aI51
aI823
aI1849
aI1850
aI1851
aI1852
aI1853
aI1854
aI320
aI1345
aI1346
aI1347
aI1349
aI327
aI841
aI1079
aI1409
aI1362
aI342
aI346
aI1423
aI860
aI570
aI769
aI865
aI356
aI1384
aI316
aI1386
aI875
aI1388
aI365
aI878
aI61
aI1392
aI881
aI915
aI885
aI886
aI888
aI377
aI1406
aI895
aI384
aI385
aI1412
aI1415
aI1416
aI1417
aI906
aI1419
aI1420
aI1421
aI1422
aI399
aI1424
aI1425
aI1426
aI1427
aI1428
aI1429
aI407
aI414
aI1440
aI930
aI1444
aI421
aI1300
aI1448
aI428
aI1455
aI1458
aI435
aI1461
aI1462
aI1463
aI1465
aI1466
aI443
aI1098
aI1470
aI1472
aI452
aI758
aI1480
aI457
aI1483
aI1486
aI976
aI465
aI919
aI472
aI986
aI1857
aI482
aI1507
aI997
aI1512
aI613
aI1008
aI1011
aI1528
aI1020
atRp287
sS'/Library/Frameworks/Python.framework/Versions/2.6/lib/python2.6/encodings/__init__.py'
p288
g3
((lp289
I140
aI144
aI145
aI146
aI147
aI154
aI64
aI69
aI74
aI75
aI85
aI86
aI87
aI88
aI92
aI93
aI94
aI96
aI99
aI100
aI104
aI108
aI109
aI114
aI120
aI121
atRp290
sS'/Library/Frameworks/Python.framework/Versions/2.6/lib/python2.6/shutil.py'
p291
g3
((lp292
I5
aI7
aI8
aI9
aI10
aI267
aI13
aI14
aI16
aI17
aI19
aI20
aI21
aI22
aI24
aI32
aI44
aI179
aI61
aI11
aI68
aI80
aI91
aI228
aI102
aI233
aI114
atRp293
sS'/Library/Frameworks/Python.framework/Versions/2.6/lib/python2.6/mimetools.py'
p294
g3
((lp295
I1
aI4
aI5
aI6
aI7
aI8
aI9
aI11
aI13
aI14
aI15
aI17
aI18
aI20
aI22
aI24
aI111
aI157
aI33
aI220
aI176
aI50
aI87
aI68
aI71
aI79
aI204
aI206
aI207
aI208
aI209
aI210
aI211
aI212
aI215
aI216
aI217
aI218
aI219
aI92
aI221
aI95
aI224
aI98
aI229
aI107
aI108
aI239
aI112
aI114
aI115
aI245
aI123
aI125
atRp296
sS'/Library/Frameworks/Python.framework/Versions/2.6/lib/python2.6/json/__init__.py'
p297
g3
((lp298
I270
aI271
aI112
aI115
aI184
aI116
aI186
aI185
aI98
aI100
aI102
aI103
aI106
aI108
aI109
aI111
aI240
aI113
aI114
aI243
aI244
aI117
aI118
aI119
aI122
aI123
aI124
atRp299
sS'/Library/Frameworks/Python.framework/Versions/2.6/lib/python2.6/site-packages/mwlib-0.11.2-py2.6-macosx-10.3-i386.egg/mwlib/templ/magics.py'
p300
g3
((lp301
I512
aI513
aI514
aI515
aI517
aI518
aI520
aI521
aI522
aI12
aI13
aI14
aI15
aI16
aI17
aI19
aI21
aI23
aI24
aI33
aI35
aI36
aI549
aI38
aI40
aI554
aI555
aI559
aI48
aI561
aI562
aI564
aI565
aI568
aI570
aI571
aI572
aI573
aI574
aI576
aI577
aI578
aI581
aI70
aI71
aI76
aI77
aI79
aI84
aI89
aI94
aI99
aI104
aI109
aI114
aI119
aI124
aI129
aI134
aI135
aI137
aI142
aI147
aI152
aI157
aI162
aI167
aI172
aI177
aI182
aI187
aI192
aI193
aI194
aI195
aI196
aI197
aI198
aI200
aI202
aI206
aI547
aI212
aI215
aI548
aI218
aI224
aI227
aI232
aI237
aI242
aI246
aI250
aI255
aI266
aI271
aI275
aI280
aI285
aI290
aI295
aI296
aI300
aI304
aI10
aI308
aI312
aI316
aI322
aI323
aI327
aI331
aI335
aI339
aI343
aI353
aI364
aI365
aI366
aI369
aI374
aI380
aI386
aI65
aI400
aI406
aI434
aI450
aI476
aI496
aI511
atRp302
sS'/Library/Frameworks/Python.framework/Versions/2.6/lib/python2.6/re.py'
p303
g3
((lp304
I137
aI142
aI151
aI186
aI190
aI208
aI209
aI210
aI211
aI212
aI213
aI216
aI217
aI231
aI232
aI233
aI234
aI235
aI236
aI240
aI242
aI243
aI246
aI247
aI248
aI249
atRp305
sS'/Library/Frameworks/Python.framework/Versions/2.6/lib/python2.6/site-packages/py-1.2.1-py2.6.egg/py/_log/__init__.py'
p306
g3
((lp307
I1
atRp308
sS'/Library/Frameworks/Python.framework/Versions/2.6/lib/python2.6/site-packages/mwlib-0.11.2-py2.6-macosx-10.3-i386.egg/mwlib/wikidbbase.py'
p309
g3
((lp310
I19
aI1
aI3
aI4
aI6
aI9
aI18
aI83
aI21
atRp311
sS'/Library/Frameworks/Python.framework/Versions/2.6/lib/python2.6/zipfile.py'
p312
g3
((lp313
I1024
aI1025
aI1027
aI47
aI5
aI1030
aI7
aI8
aI307
aI675
aI87
aI14
aI1039
aI1041
aI18
aI1043
aI1044
aI21
aI1049
aI1050
aI1051
aI1052
aI1053
aI1054
aI1055
aI1056
aI34
aI1059
aI1060
aI1061
aI550
aI96
aI1067
aI1068
aI1069
aI46
aI1071
aI1072
aI561
aI50
aI1075
aI1076
aI1077
aI54
aI1079
aI56
aI57
aI60
aI61
aI65
aI66
aI67
aI70
aI71
aI72
aI73
aI74
aI75
aI76
aI98
aI78
aI79
aI80
aI81
aI82
aI83
aI84
aI85
aI86
aI1145
aI88
aI413
aI15
aI92
aI93
aI1118
aI101
aI1120
aI97
aI1122
aI99
aI100
aI1125
aI102
aI103
aI1128
aI1129
aI106
aI107
aI1132
aI1042
aI110
aI111
aI1136
aI1137
aI1138
aI116
aI117
aI118
aI105
aI120
aI121
aI122
aI1147
aI124
aI1130
aI4
aI1151
aI128
aI129
aI1154
aI131
aI646
aI648
aI650
aI1163
aI652
aI1166
aI1133
aI656
aI1169
aI1170
aI1126
aI1172
aI1134
aI1174
aI25
aI664
aI665
aI666
aI667
aI1045
aI669
aI670
aI671
aI672
aI112
aI1186
aI27
aI676
aI677
aI678
aI679
aI680
aI1193
aI1194
aI1195
aI1196
aI1197
aI1198
aI29
aI176
aI1131
aI692
aI30
aI694
aI695
aI31
aI1215
aI1221
aI1222
aI1223
aI1224
aI1225
aI1226
aI143
aI1229
aI1230
aI720
aI1144
aI1234
aI35
aI1236
aI633
aI1164
aI123
aI231
aI232
aI1167
aI3
aI125
aI979
aI126
aI127
aI321
aI253
aI796
aI256
aI257
aI299
aI261
aI262
aI1153
aI267
aI94
aI52
aI270
aI271
aI784
aI273
aI274
aI275
aI276
aI1301
aI791
aI280
aI281
aI282
aI283
aI284
aI285
aI286
aI287
aI48
aI803
aI294
aI1073
aI296
aI297
aI298
aI1135
aI1074
aI303
aI816
aI305
aI709
aI51
aI1332
aI309
aI825
aI479
aI829
aI53
aI320
aI833
aI322
aI323
aI324
aI325
aI326
aI328
aI329
aI55
aI335
aI337
aI1233
aI343
aI655
aI1168
aI9
aI17
aI1171
aI1028
aI380
aI1405
aI1173
aI391
aI393
aI1175
aI911
aI400
aI401
aI402
aI403
aI404
aI405
aI406
aI104
aI668
aI409
aI410
aI411
aI925
aI417
aI424
aI937
aI430
aI304
aI439
aI442
aI444
aI974
aI77
aI976
aI1187
aI468
aI981
aI984
aI1188
aI987
aI476
aI1018
aI990
aI1189
aI993
aI408
aI997
aI486
aI1000
aI489
aI1191
aI1004
aI1005
aI1006
aI1007
aI1009
aI1010
aI1011
aI1012
aI1014
aI1016
aI1017
aI506
aI1019
aI1228
aI1023
atRp314
sS'/Library/Frameworks/Python.framework/Versions/2.6/lib/python2.6/random.py'
p315
g3
((lp316
I550
aI40
aI42
aI43
aI44
aI45
aI46
aI47
aI48
aI50
aI51
aI52
aI53
aI54
aI55
aI57
aI58
aI59
aI60
aI61
aI62
aI69
aI71
aI86
aI88
aI90
aI603
aI96
aI97
aI99
aI108
aI109
aI110
aI115
aI116
aI630
aI122
aI643
aI645
aI647
aI621
aI149
aI152
aI155
aI160
aI161
aI678
aI709
aI713
aI376
aI723
aI224
aI230
aI231
aI745
aI768
aI259
aI261
aI263
aI277
aI793
aI799
aI801
aI805
aI815
aI818
aI820
aI823
aI827
aI849
aI351
aI357
aI873
aI874
aI875
aI876
aI877
aI878
aI879
aI880
aI881
aI882
aI883
aI884
aI885
aI886
aI887
aI888
aI889
aI890
aI891
aI892
aI893
aI894
aI895
aI897
aI401
aI413
aI434
aI118
aI484
atRp317
sS'/Library/Frameworks/Python.framework/Versions/2.6/lib/python2.6/site-packages/mwlib-0.11.2-py2.6-macosx-10.3-i386.egg/mwlib/mathutils.py'
p318
g3
((lp319
I6
aI103
aI8
aI9
aI11
aI12
aI146
aI16
aI81
aI18
aI20
aI21
aI22
aI23
aI7
aI25
aI26
aI28
atRp320
sS'/Library/Frameworks/Python.framework/Versions/2.6/lib/python2.6/xml/sax/saxutils.py'
p321
g3
((lp322
I257
aI171
aI260
aI86
aI6
aI263
aI8
aI138
aI11
aI268
aI271
aI17
aI18
aI19
aI276
aI46
aI152
aI4
aI282
aI155
aI30
aI289
aI244
aI129
aI135
aI173
aI302
aI24
aI179
aI158
aI182
aI185
aI60
aI10
aI190
aI193
aI196
aI199
aI202
aI205
aI208
aI211
aI84
aI214
aI7
aI217
aI220
aI280
aI223
aI97
aI226
aI165
aI231
aI161
aI234
aI103
aI239
aI116
aI120
aI20
aI251
aI125
aI254
atRp323
sS'/Library/Frameworks/Python.framework/Versions/2.6/lib/python2.6/xml/sax/__init__.py'
p324
g3
((lp325
I20
aI22
aI23
aI24
aI29
aI35
aI36
aI37
aI41
aI43
aI44
aI45
aI47
aI48
aI49
aI54
aI57
aI58
aI61
aI62
aI64
aI66
aI67
aI71
aI79
aI80
aI81
aI97
aI104
aI105
aI106
aI108
atRp326
sS'/Library/Frameworks/Python.framework/Versions/2.6/lib/python2.6/site-packages/py-1.2.1-py2.6.egg/py/_io/terminalwriter.py'
p327
g3
((lp328
I258
aI171
aI5
aI134
aI135
aI136
aI9
aI138
aI11
aI12
aI13
aI14
aI15
aI17
aI146
aI147
aI149
aI154
aI156
aI157
aI158
aI160
aI161
aI163
aI164
aI198
aI166
aI167
aI168
aI169
aI263
aI172
aI173
aI175
aI176
aI177
aI180
aI201
aI185
aI186
aI187
aI195
aI196
aI70
aI71
aI72
aI140
aI202
aI203
aI204
aI205
aI206
aI141
aI208
aI210
aI212
aI142
aI214
aI87
aI216
aI217
aI218
aI143
aI220
aI221
aI80
aI82
aI139
aI8
aI247
aI84
aI250
aI200
aI253
aI254
atRp329
sS'/Library/Frameworks/Python.framework/Versions/2.6/lib/python2.6/hmac.py'
p330
g3
((lp331
I97
aI4
aI6
aI8
aI9
aI106
aI13
aI80
aI18
aI20
aI85
aI25
aI24
aI116
aI122
aI27
atRp332
sS'/Library/Frameworks/Python.framework/Versions/2.6/lib/python2.6/inspect.py'
p333
g3
((lp334
I512
aI25
aI29
aI30
aI32
aI33
aI34
aI35
aI36
aI37
aI38
aI39
aI40
aI41
aI42
aI946
aI46
aI349
aI48
aI51
aI59
aI573
aI693
aI67
aI951
aI76
aI78
aI98
aI618
aI108
aI621
aI110
aI629
aI703
aI125
aI127
aI620
aI142
aI622
aI153
aI155
aI670
aI164
aI683
aI181
aI191
aI209
aI729
aI731
aI225
aI738
aI227
aI741
aI742
aI743
aI744
aI747
aI748
aI243
aI247
aI258
aI260
aI780
aI781
aI45
aI784
aI785
aI787
aI789
aI791
aI800
aI802
aI804
aI805
aI807
aI809
aI819
aI825
aI832
aI833
aI834
aI835
aI836
aI837
aI331
aI339
aI341
aI342
aI859
aI860
aI861
aI862
aI863
aI354
aI368
aI884
aI886
aI661
aI236
aI397
aI919
aI924
aI421
aI935
aI434
aI947
aI439
aI955
aI454
aI463
aI464
aI466
aI423
atRp335
sS'/Library/Frameworks/Python.framework/Versions/2.6/lib/python2.6/site-packages/py-1.2.1-py2.6.egg/py/_plugin/pytest_junitxml.py'
p336
g3
((lp337
I4
aI6
aI7
aI9
aI138
aI11
aI12
aI13
aI15
aI16
aI17
aI21
aI22
aI23
aI27
aI28
aI35
aI135
aI44
aI47
aI52
aI10
aI70
aI79
aI88
aI96
aI102
aI61
aI113
aI120
aI127
atRp338
sS'/Library/Frameworks/Python.framework/Versions/2.6/lib/python2.6/site-packages/py-1.2.1-py2.6.egg/py/_plugin/pytest_capture.py'
p339
g3
((lp340
I85
aI87
aI88
aI90
aI91
aI92
aI93
aI94
aI95
aI96
aI98
aI99
aI100
aI101
aI106
aI107
aI109
aI110
aI111
aI113
aI114
aI115
aI116
aI118
aI121
aI122
aI123
aI124
aI133
aI134
aI137
aI138
aI139
aI140
aI141
aI143
aI145
aI146
aI147
aI148
aI149
aI151
aI152
aI155
aI156
aI157
aI158
aI159
aI161
aI162
aI164
aI165
aI166
aI167
aI168
aI169
aI170
aI173
aI174
aI175
aI176
aI179
aI180
aI182
aI183
aI184
aI190
aI193
aI194
aI199
aI200
aI201
aI202
aI203
aI205
aI206
aI207
aI209
aI210
aI212
aI213
aI214
aI216
aI217
aI219
aI220
aI221
aI222
aI223
aI225
aI226
aI228
aI230
aI234
aI235
aI236
aI237
aI238
aI240
aI241
aI242
aI243
aI245
aI252
aI262
aI263
aI267
aI270
aI275
aI278
atRp341
sS'/Library/Frameworks/Python.framework/Versions/2.6/lib/python2.6/site-packages/py-1.2.1-py2.6.egg/py/_compat/__init__.py'
p342
g3
((lp343
I1
atRp344
sS'/Library/Frameworks/Python.framework/Versions/2.6/lib/python2.6/site-packages/py-1.2.1-py2.6.egg/py/_test/collect.py'
p345
g3
((lp346
I3
aI4
aI6
aI7
aI9
aI10
aI12
aI13
aI14
aI15
aI16
aI18
aI19
aI20
aI21
aI22
aI24
aI27
aI28
aI29
aI30
aI31
aI32
aI33
aI35
aI42
aI44
aI68
aI78
aI79
aI81
aI83
aI86
aI89
aI90
aI92
aI93
aI95
aI96
aI97
aI98
aI100
aI102
aI103
aI110
aI111
aI113
aI116
aI117
aI118
aI119
aI120
aI122
aI123
aI124
aI126
aI129
aI130
aI131
aI132
aI133
aI135
aI136
aI138
aI139
aI141
aI155
aI174
aI177
aI189
aI190
aI192
aI200
aI201
aI202
aI204
aI210
aI216
aI221
aI223
aI229
aI233
aI234
aI236
aI237
aI238
aI243
aI250
aI256
aI265
aI266
aI267
aI268
aI269
aI271
aI279
aI280
aI282
aI283
aI284
aI285
aI287
aI288
aI289
aI291
aI292
aI293
aI294
aI295
aI296
aI298
aI299
aI301
aI302
aI303
aI304
aI305
aI307
aI314
aI315
aI317
aI318
aI319
aI320
aI323
aI325
aI326
aI327
aI328
aI329
aI330
aI331
aI332
aI334
aI335
aI337
aI338
aI340
aI342
aI343
aI344
aI345
aI347
aI350
aI354
aI358
aI362
aI365
aI371
aI379
aI380
aI381
aI382
aI384
aI387
aI388
aI389
aI390
aI391
aI393
aI394
aI395
aI396
aI397
aI399
aI403
aI405
aI406
aI408
aI414
aI417
aI428
aI431
atRp347
sS'/Library/Frameworks/Python.framework/Versions/2.6/lib/python2.6/json/scanner.py'
p348
g3
((lp349
I3
aI5
aI6
aI7
aI8
aI10
aI11
aI13
aI15
aI17
aI18
aI19
aI21
aI22
aI23
aI24
aI25
aI26
aI27
aI28
aI31
aI32
aI34
aI35
aI36
aI38
aI64
aI65
aI66
aI67
aI68
aI69
atRp350
sS'/Users/martinbudden/Documents/github/epub/test/test_mwb.py'
p351
g3
((lp352
I3
aI37
aI8
aI10
aI11
aI12
aI13
aI14
aI15
aI16
aI17
aI18
aI19
aI29
aI5
atRp353
sS'/Library/Frameworks/Python.framework/Versions/2.6/lib/python2.6/site-packages/py-1.2.1-py2.6.egg/py/_plugin/pytest_terminal.py'
p354
g3
((lp355
I5
aI6
aI7
aI9
aI10
aI11
aI12
aI13
aI14
aI15
aI16
aI17
aI18
aI19
aI20
aI21
aI22
aI23
aI24
aI25
aI26
aI27
aI28
aI30
aI31
aI33
aI37
aI38
aI40
aI41
aI46
aI48
aI49
aI50
aI58
aI60
aI61
aI62
aI63
aI64
aI65
aI66
aI67
aI68
aI69
aI70
aI72
aI75
aI76
aI77
aI78
aI79
aI80
aI81
aI82
aI84
aI93
aI94
aI95
aI96
aI98
aI99
aI100
aI101
aI103
aI104
aI105
aI107
aI108
aI109
aI111
aI112
aI113
aI114
aI116
aI117
aI119
aI120
aI121
aI129
aI133
aI152
aI153
aI160
aI163
aI167
aI172
aI176
aI179
aI180
aI190
aI197
aI199
aI202
aI203
aI204
aI205
aI208
aI209
aI212
aI213
aI214
aI227
aI228
aI237
aI238
aI239
aI241
aI242
aI243
aI244
aI246
aI247
aI248
aI249
aI251
aI252
aI254
aI255
aI256
aI257
aI258
aI259
aI260
aI261
aI263
aI264
aI266
aI269
aI277
aI287
aI293
aI314
aI323
aI333
aI334
aI335
aI344
aI345
aI346
aI358
aI359
aI374
aI381
aI382
aI384
aI385
aI386
aI388
aI389
aI390
aI391
aI392
aI393
aI395
aI397
aI398
aI403
aI404
aI406
aI414
aI417
aI421
aI425
aI428
aI434
aI441
aI449
aI450
aI451
aI452
aI457
aI458
aI459
aI467
aI497
atRp356
sS'/Library/Frameworks/Python.framework/Versions/2.6/lib/python2.6/site-packages/py-1.2.1-py2.6.egg/py/_test/conftesthandle.py'
p357
g3
((lp358
I1
aI3
aI10
aI11
aI12
aI13
aI14
aI15
aI17
aI26
aI27
aI28
aI29
aI30
aI38
aI39
aI40
aI41
aI43
aI44
aI45
aI46
aI50
aI52
aI53
aI54
aI55
aI57
aI58
aI59
aI61
aI62
aI63
aI66
aI67
aI69
aI72
aI74
aI75
aI78
aI79
aI80
aI81
aI86
aI88
aI110
atRp359
sS'/Library/Frameworks/Python.framework/Versions/2.6/lib/python2.6/quopri.py'
p360
g3
((lp361
I192
aI236
aI3
aI7
aI105
aI10
aI171
aI12
aI14
aI175
aI11
aI35
aI116
aI21
aI9
aI15
aI42
aI159
atRp362
sS'/Library/Frameworks/Python.framework/Versions/2.6/lib/python2.6/repr.py'
p363
g3
((lp364
I1
aI131
aI132
aI5
aI6
aI8
aI10
aI11
aI12
aI13
aI14
aI15
aI16
aI17
aI18
aI3
aI20
aI21
aI23
aI26
aI41
aI54
aI57
aI60
aI64
aI68
aI73
aI76
aI91
aI100
aI108
aI19
aI122
atRp365
sS'/Library/Frameworks/Python.framework/Versions/2.6/lib/python2.6/urllib2.py'
p366
g3
((lp367
I512
aI1025
aI1026
aI515
aI1028
aI518
aI521
aI524
aI514
aI526
aI1039
aI1041
aI1048
aI1050
aI1053
aI1056
aI605
aI560
aI264
aI607
aI1085
aI1036
aI74
aI1038
aI100
aI90
aI91
aI92
aI93
aI94
aI95
aI96
aI97
aI98
aI99
aI612
aI101
aI102
aI104
aI105
aI109
aI114
aI117
aI1143
aI120
aI1145
aI1148
aI126
aI1151
aI1153
aI1156
aI134
aI1159
aI140
aI1165
aI144
aI1169
aI147
aI148
aI149
aI1174
aI151
aI1176
aI1177
aI1181
aI164
aI1191
aI168
aI169
aI684
aI686
aI688
aI185
aI698
aI187
aI188
aI296
aI119
aI206
aI1234
aI1236
aI727
aI729
aI218
aI732
aI1245
aI1246
aI226
aI229
aI743
aI232
aI235
aI238
aI753
aI1150
aI895
aI252
aI255
aI1281
aI1282
aI776
aI267
aI793
aI270
aI273
aI277
aI791
aI281
aI285
aI801
aI290
aI1158
aI295
aI808
aI809
aI815
aI306
aI821
aI1335
aI1340
aI1343
aI833
aI1350
aI1353
aI1356
aI846
aI848
aI850
aI1366
aI856
aI858
aI860
aI355
aI870
aI359
aI1256
aI371
aI884
aI1173
aI903
aI906
aI399
aI923
aI414
aI935
aI945
aI439
aI245
aI478
aI479
aI481
aI484
aI488
aI1001
aI497
aI498
aI499
aI1013
aI501
aI1018
aI1023
atRp368
sS'/Library/Frameworks/Python.framework/Versions/2.6/lib/python2.6/subprocess.py'
p369
g3
((lp370
I384
aI1153
aI386
aI645
aI385
aI392
aI393
aI1162
aI651
aI396
aI1293
aI400
aI563
aI662
aI1241
aI1310
aI389
aI560
aI561
aI427
aI428
aI429
aI430
aI432
aI945
aI434
aI435
aI564
aI565
aI696
aI692
aI446
aI448
aI562
aI458
aI459
aI462
aI1236
aI473
aI990
aI1252
aI1000
aI1129
aI492
aI1005
aI1246
aI1139
aI377
aI379
aI380
aI382
aI383
atRp371
sS'/Library/Frameworks/Python.framework/Versions/2.6/lib/python2.6/site-packages/Jinja2-2.1.1-py2.6-macosx-10.3-i386.egg/jinja2/__init__.py'
p372
g3
((lp373
I32
aI65
aI66
aI67
aI37
aI40
aI28
aI44
aI64
aI29
aI48
aI51
aI30
aI55
aI56
aI31
aI60
aI61
aI62
aI63
atRp374
sS'/Library/Frameworks/Python.framework/Versions/2.6/lib/python2.6/email/mime/base.py'
p375
g3
((lp376
I5
aI7
aI9
aI13
aI14
aI16
atRp377
sS'/Library/Frameworks/Python.framework/Versions/2.6/lib/python2.6/genericpath.py'
p378
g3
((lp379
I40
aI41
aI44
aI17
aI18
aI19
aI20
aI21
aI54
atRp380
sS'/Library/Frameworks/Python.framework/Versions/2.6/lib/python2.6/encodings/ascii.py'
p381
g3
((lp382
I42
aI43
aI44
aI45
aI46
aI47
aI48
aI49
atRp383
sS'/Library/Frameworks/Python.framework/Versions/2.6/lib/python2.6/email/base64mime.py'
p384
g3
((lp385
I65
aI25
aI155
aI28
aI29
aI30
aI31
aI32
aI33
aI34
aI35
aI39
aI40
aI156
aI42
aI43
aI44
aI47
aI52
aI182
aI183
aI64
aI160
aI122
atRp386
sS'/Library/Frameworks/Python.framework/Versions/2.6/lib/python2.6/difflib.py'
p387
g3
((lp388
I1280
aI704
aI885
aI1057
aI1675
aI1676
aI1805
aI532
aI663
aI152
aI154
aI29
aI926
aI31
aI32
aI33
aI1826
aI931
aI1316
aI1317
aI39
aI41
aI300
aI46
aI946
aI692
aI1205
aI1206
aI1636
aI1652
aI1722
aI1598
aI36
aI1984
aI1986
aI587
aI1860
aI1607
aI1656
aI1143
aI1634
aI461
aI1617
aI37
aI35
aI1108
aI1699
aI1849
aI217
aI859
aI861
aI351
aI2018
aI1659
aI1124
aI229
aI2022
aI1106
aI752
aI1777
aI1650
aI1907
aI1908
aI1653
aI1654
aI1655
aI1144
aI1044
aI1658
aI255
aI637
aI767
atRp389
sS'/Users/martinbudden/Documents/github/epub/epub/__init__.py'
p390
g3
((lp391
I3
aI5
atRp392
sS'/Library/Frameworks/Python.framework/Versions/2.6/lib/python2.6/site-packages/Jinja2-2.1.1-py2.6-macosx-10.3-i386.egg/jinja2/compiler.py'
p393
g3
((lp394
I10
aI11
aI12
aI13
aI14
aI15
aI16
aI19
aI20
aI21
aI22
aI23
aI24
aI25
aI26
aI27
aI30
aI31
aI35
aI38
aI40
aI42
aI43
aI44
aI45
aI48
aI70
aI74
aI75
aI76
aI77
aI80
aI83
aI84
aI86
aI89
aI92
aI97
aI100
aI103
aI105
aI110
aI112
aI113
aI114
aI116
aI118
aI122
aI123
aI124
aI127
aI128
aI130
aI131
aI134
aI139
aI143
aI149
aI152
aI155
aI157
aI158
aI161
aI162
aI164
aI165
aI166
aI168
aI170
aI178
aI183
aI184
aI185
aI187
aI189
aI191
aI200
aI203
aI204
aI207
aI208
aI210
aI211
aI212
aI214
aI218
aI222
aI226
aI230
aI232
aI233
aI234
aI236
aI237
aI242
aI244
aI248
aI249
aI251
aI252
aI253
aI255
aI257
aI258
aI259
aI261
aI262
aI263
aI265
aI268
aI272
aI280
aI285
aI289
aI291
aI295
aI298
aI302
aI306
aI309
aI311
aI312
aI313
aI314
aI315
aI316
aI317
aI320
aI324
aI327
aI332
aI335
aI338
aI339
aI342
aI343
aI346
aI349
aI352
aI356
aI359
aI363
aI367
aI372
aI377
aI384
aI386
aI388
aI390
aI392
aI394
aI395
aI399
aI401
aI404
aI406
aI407
aI408
aI410
aI415
aI416
aI419
aI420
aI421
aI425
aI427
aI428
aI429
aI430
aI431
aI432
aI433
aI434
aI435
aI436
aI437
aI438
aI440
aI442
aI443
aI445
aI447
aI448
aI449
aI450
aI452
aI505
aI507
aI508
aI510
aI512
aI513
aI514
aI515
aI516
aI517
aI523
aI533
aI534
aI537
aI538
aI539
aI540
aI541
aI542
aI543
aI545
aI547
aI549
aI550
aI551
aI552
aI553
aI554
aI556
aI557
aI623
aI638
aI655
aI664
aI665
aI666
aI667
aI668
aI672
aI675
aI676
aI678
aI681
aI693
aI696
aI699
aI700
aI701
aI702
aI703
aI704
aI705
aI706
aI709
aI710
aI711
aI712
aI715
aI716
aI719
aI720
aI722
aI723
aI724
aI727
aI728
aI729
aI730
aI731
aI732
aI733
aI734
aI735
aI738
aI742
aI743
aI744
aI745
aI747
aI748
aI749
aI752
aI753
aI755
aI757
aI758
aI761
aI762
aI763
aI767
aI768
aI769
aI770
aI771
aI773
aI775
aI782
aI800
aI801
aI802
aI803
aI805
aI806
aI808
aI813
aI814
aI817
aI819
aI837
aI852
aI904
aI907
aI908
aI912
aI913
aI918
aI919
aI920
aI925
aI926
aI937
aI939
aI940
aI944
aI945
aI952
aI953
aI961
aI962
aI963
aI967
aI982
aI985
aI987
aI990
aI993
aI1002
aI1003
aI1004
aI1006
aI1008
aI1015
aI1016
aI1020
aI1029
aI1043
aI1053
aI1062
aI1074
aI1078
aI1081
aI1082
aI1084
aI1087
aI1089
aI1092
aI1093
aI1100
aI1101
aI1102
aI1103
aI1104
aI1105
aI1106
aI1107
aI1108
aI1113
aI1119
aI1122
aI1125
aI1126
aI1133
aI1134
aI1135
aI1136
aI1137
aI1157
aI1164
aI1165
aI1166
aI1167
aI1168
aI1170
aI1171
aI1172
aI1173
aI1174
aI1175
aI1176
aI1177
aI1178
aI1179
aI1182
aI1185
aI1186
aI1187
aI1188
aI1190
aI1193
aI1232
aI1233
aI1235
aI1237
aI1238
aI1239
aI1242
aI1244
aI1247
aI1256
aI1264
aI1274
aI1275
aI1281
aI1283
aI1284
aI1288
aI1290
aI1291
aI1292
aI1293
aI1294
aI1295
aI1296
aI1297
aI1298
aI1299
aI1300
aI1301
aI1302
aI1304
aI1312
aI1317
aI1321
aI1322
aI1323
aI1324
aI1326
aI1340
aI1350
aI1371
aI1379
aI1404
aI1414
aI1420
aI1425
aI1428
aI1431
aI1434
aI1437
aI1440
aI1443
atRp395
sS'/Library/Frameworks/Python.framework/Versions/2.6/lib/python2.6/site-packages/py-1.2.1-py2.6.egg/py/_test/funcargs.py'
p396
g3
((lp397
I1
aI3
aI4
aI5
aI6
aI7
aI8
aI9
aI11
aI13
aI15
aI16
aI24
aI18
aI19
aI20
aI21
aI22
aI23
aI152
aI25
aI27
aI157
aI30
aI31
aI161
aI164
aI40
aI41
aI42
aI43
aI44
aI45
aI46
aI47
aI48
aI49
aI51
aI63
aI64
aI65
aI67
aI68
aI70
aI71
aI72
aI73
aI74
aI75
aI76
aI77
aI78
aI79
aI81
aI82
aI83
aI84
aI86
aI87
aI88
aI36
aI91
aI95
aI29
aI121
aI143
atRp398
sS'/Library/Frameworks/Python.framework/Versions/2.6/lib/python2.6/doctest.py'
p399
g3
((lp400
I2049
aI2052
aI1032
aI2569
aI2059
aI2061
aI88
aI532
aI2581
aI2583
aI1540
aI1967
aI90
aI2309
aI1092
aI2593
aI547
aI549
aI2603
aI46
aI93
aI48
aI2097
aI2099
aI52
aI2613
aI54
aI55
aI56
aI57
aI58
aI59
aI60
aI2109
aI62
aI63
aI64
aI1090
aI67
aI68
aI70
aI1607
aI72
aI1604
aI74
aI75
aI76
aI77
aI78
aI190
aI80
aI1617
aI82
aI99
aI2644
aI86
aI87
aI600
aI2660
aI1626
aI2651
aI92
aI2234
aI96
aI98
aI2147
aI100
aI101
aI102
aI2663
aI1128
aI1623
aI2159
aI104
aI1141
aI1149
aI127
aI128
aI130
aI1156
aI133
aI134
aI135
aI136
aI137
aI1163
aI143
aI144
aI146
aI147
aI148
aI149
aI153
aI154
aI668
aI157
aI158
aI1183
aI943
aI178
aI1715
aI1717
aI2231
aI696
aI698
aI1723
aI1726
aI2240
aI706
aI2243
aI1736
aI1738
aI1739
aI1740
aI2238
aI720
aI209
aI221
aI736
aI229
aI743
aI745
aI746
aI2685
aI241
aI242
aI980
aI255
aI2304
aI2306
aI261
aI2311
aI2313
aI2318
aI2319
aI2320
aI132
aI1307
aI2635
aI521
aI1317
aI1320
aI2347
aI1328
aI1842
aI1843
aI1844
aI1845
aI310
aI2100
aI318
aI53
aI323
aI324
aI329
aI614
aI335
aI341
aI860
aI352
aI2619
aI91
aI1385
aI61
aI880
aI2420
aI1598
aI1087
aI388
aI1588
aI2115
aI665
aI1599
aI666
aI1442
aI422
aI423
aI424
aI1455
aI1968
aI1462
aI1463
aI543
aI441
aI2123
aI2502
aI588
aI1996
aI1997
aI464
aI465
aI1618
aI2518
aI2523
aI479
aI2017
aI2043
aI81
aI2026
aI491
aI1517
aI2035
aI501
aI504
aI84
aI2555
aI510
aI767
atRp401
sS'/Library/Frameworks/Python.framework/Versions/2.6/lib/python2.6/site-packages/py-1.2.1-py2.6.egg/py/_plugin/__init__.py'
p402
g3
((lp403
I1
atRp404
sS'/Library/Frameworks/Python.framework/Versions/2.6/lib/python2.6/ConfigParser.py'
p405
g3
((lp406
I128
aI513
aI179
aI342
aI134
aI193
aI136
aI266
aI395
aI140
aI141
aI143
aI656
aI88
aI579
aI148
aI610
aI150
aI217
aI410
aI156
aI90
aI159
aI133
aI165
aI291
aI420
aI421
aI167
aI425
aI426
aI157
aI177
aI434
aI307
aI181
aI182
aI184
aI95
aI192
aI96
aI354
aI323
aI200
aI339
aI346
aI204
aI205
aI207
aI92
aI547
aI598
aI600
aI345
aI218
aI348
aI93
aI94
aI101
aI608
aI97
aI226
aI99
aI131
aI229
aI195
aI357
aI616
aI124
aI234
aI107
aI164
aI109
aI336
aI369
aI114
aI147
aI106
aI515
aI248
aI122
aI380
aI618
aI255
atRp407
sS'/Library/Frameworks/Python.framework/Versions/2.6/lib/python2.6/site-packages/Jinja2-2.1.1-py2.6-macosx-10.3-i386.egg/jinja2/environment.py'
p408
g3
((lp409
I512
aI514
aI515
aI519
aI10
aI11
aI12
aI13
aI14
aI15
aI16
aI17
aI18
aI19
aI20
aI495
aI25
aI28
aI548
aI551
aI552
aI553
aI554
aI555
aI556
aI557
aI558
aI559
aI560
aI561
aI562
aI563
aI564
aI53
aI573
aI62
aI578
aI579
aI580
aI581
aI583
aI584
aI268
aI74
aI587
aI588
aI78
aI591
aI592
aI82
aI595
aI84
aI598
aI87
aI600
aI610
aI611
aI612
aI618
aI624
aI191
aI641
aI649
aI651
aI654
aI655
aI195
aI663
aI665
aI674
aI226
aI176
aI691
aI181
aI201
aI184
aI187
aI700
aI703
aI705
aI194
aI707
aI196
aI197
aI198
aI199
aI200
aI713
aI202
aI203
aI204
aI205
aI206
aI207
aI208
aI209
aI210
aI211
aI725
aI727
aI732
aI733
aI735
aI224
aI225
aI738
aI227
aI228
aI229
aI230
aI721
aI232
aI746
aI235
aI236
aI237
aI750
aI752
aI241
aI242
aI243
aI756
aI246
aI247
aI248
aI249
aI250
aI765
aI255
aI257
aI774
aI776
aI44
aI266
aI267
aI780
aI269
aI270
aI271
aI272
aI273
aI46
aI48
aI807
aI812
aI50
aI310
aI312
aI839
aI329
aI842
aI333
aI334
aI335
aI336
aI337
aI338
aI342
aI351
aI353
aI354
aI359
aI231
aI574
aI376
aI381
aI382
aI384
aI848
aI388
aI389
aI390
aI394
aI396
aI66
aI67
aI238
aI409
aI410
aI411
aI412
aI413
aI414
aI416
aI418
aI420
aI422
aI71
aI585
aI586
aI76
aI464
aI474
aI79
aI476
aI80
aI488
aI490
aI491
aI493
aI494
aI253
aI496
aI497
aI499
aI500
aI501
aI502
aI504
aI596
atRp410
sS'/Library/Frameworks/Python.framework/Versions/2.6/lib/python2.6/site-packages/Jinja2-2.1.1-py2.6-macosx-10.3-i386.egg/jinja2/utils.py'
p411
g3
((lp412
I512
aI513
aI514
aI516
aI10
aI11
aI12
aI13
aI14
aI15
aI88
aI18
aI19
aI22
aI23
aI24
aI537
aI26
aI29
aI30
aI31
aI32
aI33
aI546
aI547
aI36
aI549
aI551
aI604
aI42
aI43
aI44
aI45
aI47
aI48
aI49
aI94
aI570
aI59
aI60
aI574
aI64
aI65
aI578
aI523
aI609
aI584
aI695
aI590
aI591
aI592
aI593
aI594
aI596
aI85
aI86
aI87
aI600
aI601
aI602
aI91
aI92
aI93
aI606
aI607
aI97
aI611
aI530
aI622
aI113
aI628
aI89
aI632
aI123
aI636
aI640
aI644
aI534
aI650
aI139
aI652
aI145
aI658
aI90
aI662
aI663
aI664
aI669
aI670
aI672
aI678
aI682
aI687
aI694
aI183
aI697
aI701
aI544
aI194
aI710
aI711
aI206
aI548
aI738
aI739
aI25
aI250
aI561
aI299
aI481
aI342
aI343
aI345
aI352
aI355
aI360
aI487
aI365
aI369
aI371
aI378
aI384
aI386
aI388
aI390
aI392
aI394
aI396
aI398
aI400
aI422
aI157
aI433
aI444
aI445
aI446
aI450
aI451
aI452
aI454
aI457
aI458
aI461
aI462
aI463
aI466
aI467
aI469
aI505
aI472
aI480
aI80
aI483
aI486
aI81
aI488
aI489
aI490
aI491
aI82
aI494
aI495
aI501
aI502
aI503
aI504
aI84
aI507
aI509
aI510
aI511
atRp413
sS'/Library/Frameworks/Python.framework/Versions/2.6/lib/python2.6/email/mime/text.py'
p414
g3
((lp415
I5
aI7
aI9
aI10
aI14
aI15
aI17
atRp416
sS'/Library/Frameworks/Python.framework/Versions/2.6/lib/python2.6/pprint.py'
p417
g3
((lp418
I35
aI37
aI39
aI41
aI42
aI45
aI46
aI47
aI48
aI51
aI73
aI57
aI61
aI65
aI324
aI69
aI329
aI74
aI342
aI221
aI230
aI105
aI109
aI240
aI114
aI117
aI121
atRp419
sS'/Library/Frameworks/Python.framework/Versions/2.6/lib/python2.6/site-packages/py-1.2.1-py2.6.egg/py/_test/pycollect.py'
p420
g3
((lp421
I3
aI4
aI5
aI6
aI7
aI8
aI10
aI11
aI12
aI13
aI14
aI15
aI16
aI17
aI18
aI20
aI21
aI23
aI26
aI28
aI29
aI30
aI31
aI32
aI34
aI35
aI36
aI37
aI38
aI39
aI41
aI42
aI43
aI44
aI45
aI47
aI48
aI49
aI50
aI51
aI52
aI54
aI57
aI58
aI60
aI61
aI62
aI63
aI65
aI66
aI67
aI68
aI69
aI71
aI72
aI73
aI74
aI76
aI77
aI78
aI81
aI82
aI83
aI84
aI85
aI86
aI87
aI88
aI89
aI90
aI91
aI92
aI93
aI94
aI95
aI96
aI97
aI98
aI99
aI101
aI102
aI106
aI107
aI108
aI110
aI111
aI118
aI119
aI120
aI121
aI122
aI123
aI124
aI125
aI126
aI127
aI128
aI137
aI138
aI139
aI141
aI143
aI145
aI146
aI148
aI149
aI153
aI162
aI163
aI172
aI174
aI180
aI190
aI196
aI197
aI199
aI202
aI204
aI210
aI214
aI216
aI218
aI220
aI223
aI224
aI228
aI229
aI230
aI233
aI235
aI238
aI239
aI240
aI241
aI244
aI256
aI266
aI270
aI272
aI273
aI279
aI288
aI289
aI310
aI326
aI327
aI330
aI331
aI332
aI333
aI334
aI335
aI336
aI339
aI345
aI346
aI348
aI350
aI351
aI352
aI353
aI355
aI357
aI358
aI360
aI361
aI362
aI363
aI365
aI367
aI369
aI370
aI371
aI372
aI374
aI375
aI376
aI377
aI378
aI379
aI380
aI381
aI387
aI390
aI393
atRp422
sS'/Library/Frameworks/Python.framework/Versions/2.6/lib/python2.6/collections.py'
p423
g3
((lp424
I39
aI40
aI41
aI42
aI43
aI45
aI47
aI49
aI50
aI51
aI53
aI55
aI58
aI59
aI60
aI61
aI87
aI88
aI89
aI90
aI95
aI96
aI97
aI98
aI101
aI106
aI107
aI109
atRp425
sS'/Library/Frameworks/Python.framework/Versions/2.6/lib/python2.6/site-packages/mwlib-0.11.2-py2.6-macosx-10.3-i386.egg/mwlib/refine/util.py'
p426
g3
((lp427
I5
aI6
aI8
aI9
aI151
aI166
aI41
aI43
aI44
aI45
aI46
aI47
aI48
aI49
aI50
aI51
aI52
aI53
aI54
aI55
aI56
aI57
aI58
aI59
aI60
aI61
aI62
aI63
aI64
aI67
aI73
aI88
aI101
atRp428
sS'/Users/martinbudden/Documents/github/epub/test/test_xml.py'
p429
g3
((lp430
I32
aI3
aI6
aI9
aI11
aI12
aI13
aI14
aI15
aI16
aI17
aI18
aI19
aI20
aI24
atRp431
sS'/Library/Frameworks/Python.framework/Versions/2.6/lib/python2.6/site-packages/py-1.2.1-py2.6.egg/py/_plugin/pytest_mark.py'
p432
g3
((lp433
I129
aI135
aI140
aI141
aI142
aI143
aI144
aI145
aI146
aI147
aI148
aI149
aI150
aI152
aI77
aI78
aI80
aI81
aI83
aI86
aI87
aI92
aI93
aI94
aI99
aI104
aI123
aI124
atRp434
sS'/Library/Frameworks/Python.framework/Versions/2.6/lib/python2.6/site-packages/py-1.2.1-py2.6.egg/py/_plugin/pytest_skipping.py'
p435
g3
((lp436
I130
aI131
aI132
aI133
aI134
aI135
aI144
aI146
aI149
aI150
aI157
aI158
aI159
aI161
aI162
aI163
aI164
aI181
aI182
aI190
aI191
aI192
aI193
aI194
aI205
aI207
aI218
aI219
aI220
aI221
aI118
aI122
aI125
aI126
aI127
atRp437
sS'/Library/Frameworks/Python.framework/Versions/2.6/lib/python2.6/site-packages/mwlib-0.11.2-py2.6-macosx-10.3-i386.egg/mwlib/refine/core.py'
p438
g3
((lp439
I513
aI6
aI7
aI8
aI10
aI344
aI21
aI24
aI25
aI26
aI27
aI28
aI29
aI30
aI31
aI32
aI33
aI34
aI35
aI36
aI37
aI38
aI40
aI42
aI44
aI62
aI63
aI64
aI66
aI601
aI602
aI604
aI610
aI102
aI104
aI106
aI107
aI109
aI113
aI114
aI115
aI116
aI117
aI118
aI120
aI121
aI123
aI638
aI639
aI640
aI642
aI131
aI660
aI149
aI152
aI153
aI157
aI714
aI717
aI718
aI720
aI721
aI214
aI215
aI219
aI238
aI239
aI243
aI764
aI780
aI784
aI798
aI801
aI804
aI808
aI822
aI312
aI313
aI827
aI828
aI317
aI831
aI834
aI856
aI345
aI858
aI349
aI356
aI148
aI421
aI477
aI478
aI496
aI503
atRp440
sS'/Library/Frameworks/Python.framework/Versions/2.6/lib/python2.6/xml/__init__.py'
p441
g3
((lp442
I32
aI33
aI34
aI17
aI20
aI25
aI28
aI31
atRp443
sS'/Library/Frameworks/Python.framework/Versions/2.6/lib/python2.6/bdb.py'
p444
g3
((lp445
I1
aI130
aI3
aI4
aI133
aI7
aI393
aI10
aI267
aI13
aI399
aI144
aI529
aI148
aI277
aI22
aI152
aI26
aI285
aI158
aI5
aI417
aI290
aI36
aI167
aI296
aI42
aI583
aI172
aI430
aI303
aI176
aI435
aI180
aI309
aI9
aI184
aI436
aI62
aI437
aI441
aI139
aI68
aI582
aI199
aI329
aI587
aI462
aI81
aI210
aI596
aI470
aI87
aI600
aI473
aI476
aI605
aI223
aI224
aI609
aI357
aI97
aI108
aI594
aI238
aI501
aI375
aI413
aI20
aI254
atRp446
sS'/Library/Frameworks/Python.framework/Versions/2.6/lib/python2.6/site-packages/mwlib-0.11.2-py2.6-macosx-10.3-i386.egg/mwlib/utils.py'
p447
g3
((lp448
I1
aI258
aI3
aI4
aI22
aI9
aI10
aI11
aI12
aI13
aI14
aI15
aI272
aI17
aI18
aI19
aI20
aI21
aI150
aI535
aI25
aI27
aI28
aI33
aI34
aI422
aI423
aI424
aI169
aI49
aI53
aI23
aI2
aI68
aI268
aI386
aI271
aI210
aI270
aI91
aI220
aI222
aI351
aI224
aI16
aI235
aI368
aI241
aI502
aI119
aI248
aI252
atRp449
sS'/Library/Frameworks/Python.framework/Versions/2.6/lib/python2.6/site-packages/Jinja2-2.1.1-py2.6-macosx-10.3-i386.egg/jinja2/exceptions.py'
p450
g3
((lp451
I65
aI68
aI38
aI71
aI60
aI74
aI75
aI13
aI14
aI17
aI18
aI84
aI78
aI87
aI56
aI25
aI26
aI28
aI10
aI20
aI81
atRp452
sS'/Library/Frameworks/Python.framework/Versions/2.6/lib/python2.6/site-packages/Jinja2-2.1.1-py2.6-macosx-10.3-i386.egg/jinja2/nodes.py'
p453
g3
((lp454
I598
aI520
aI523
aI524
aI258
aI14
aI527
aI16
aI17
aI18
aI533
aI534
aI601
aI24
aI25
aI26
aI774
aI28
aI31
aI32
aI33
aI34
aI37
aI38
aI39
aI40
aI41
aI42
aI43
aI44
aI45
aI49
aI50
aI563
aI564
aI565
aI567
aI56
aI104
aI58
aI59
aI60
aI61
aI62
aI63
aI64
aI65
aI66
aI67
aI580
aI70
aI583
aI584
aI586
aI587
aI589
aI590
aI591
aI592
aI696
aI594
aI85
aI86
aI697
aI88
aI89
aI602
aI91
aI604
aI94
aI95
aI272
aI699
aI612
aI615
aI616
aI105
aI618
aI107
aI108
aI622
aI112
aI625
aI626
aI628
aI106
aI119
aI120
aI121
aI122
aI123
aI124
aI125
aI21
aI640
aI641
aI642
aI645
aI646
aI647
aI136
aI137
aI650
aI651
aI652
aI141
aI655
aI656
aI145
aI146
aI148
aI150
aI151
aI152
aI153
aI154
aI667
aI668
aI669
aI709
aI672
aI673
aI162
aI163
aI164
aI677
aI166
aI167
aI168
aI682
aI683
aI684
aI687
aI688
aI689
aI691
aI773
aI181
aI183
aI184
aI185
aI186
aI187
aI188
aI190
aI703
aI704
aI705
aI194
aI708
aI197
aI710
aI713
aI714
aI715
aI205
aI206
aI207
aI92
aI721
aI210
aI211
aI724
aI725
aI215
aI728
aI218
aI219
aI734
aI735
aI225
aI738
aI212
aI229
aI536
aI743
aI744
aI234
aI747
aI241
aI242
aI756
aI245
aI246
aI247
aI761
aI762
aI763
aI765
aI254
aI255
aI769
aI770
aI22
aI261
aI262
aI265
aI266
aI267
aI270
aI271
aI784
aI275
aI276
aI277
aI280
aI281
aI282
aI285
aI133
aI87
aI134
aI295
aI296
aI299
aI777
aI301
aI304
aI305
aI306
aI128
aI309
aI310
aI300
aI313
aI377
aI138
aI53
aI139
aI327
aI329
aI778
aI311
aI226
aI334
aI335
aI336
aI337
aI338
aI340
aI348
aI349
aI350
aI351
aI352
aI354
aI230
aI657
aI362
aI231
aI369
aI370
aI372
aI373
aI374
aI660
aI378
aI379
aI382
aI576
aI387
aI388
aI390
aI393
aI394
aI663
aI695
aI664
aI405
aI406
aI407
aI409
aI410
aI412
aI415
aI419
aI420
aI422
aI753
aI156
aI754
aI432
aI433
aI434
aI436
aI440
aI443
aI444
aI446
aI450
aI451
aI452
aI454
aI15
aI458
aI459
aI460
aI674
aI462
aI466
aI469
aI470
aI472
aI135
aI250
aI165
aI483
aI678
aI489
aI490
aI679
aI492
aI222
aI27
aI425
aI782
aI170
aI23
atRp455
sS'/Library/Frameworks/Python.framework/Versions/2.6/lib/python2.6/xml/parsers/expat.py'
p456
g3
((lp457
I1
aI2
aI4
atRp458
sS'/Library/Frameworks/Python.framework/Versions/2.6/lib/python2.6/site-packages/py-1.2.1-py2.6.egg/py/apipkg.py'
p459
g3
((lp460
I7
aI8
aI9
aI11
aI13
aI15
aI16
aI17
aI18
aI19
aI20
aI21
aI22
aI24
aI25
aI26
aI28
aI29
aI30
aI31
aI32
aI33
aI34
aI35
aI36
aI37
aI38
aI39
aI41
aI42
aI43
aI44
aI45
aI47
aI49
aI59
aI61
aI62
aI63
aI64
aI65
aI66
aI67
aI68
aI71
aI73
aI74
aI75
aI76
aI79
aI81
aI83
aI95
atRp461
sS'/Library/Frameworks/Python.framework/Versions/2.6/lib/python2.6/site-packages/mwlib-0.11.2-py2.6-macosx-10.3-i386.egg/mwlib/templ/mwlocals.py'
p462
g3
((lp463
I1
aI10
atRp464
sS'/Library/Frameworks/Python.framework/Versions/2.6/lib/python2.6/email/encoders.py'
p465
g3
((lp466
I5
aI39
aI8
aI9
aI10
aI11
aI14
aI16
aI51
aI20
aI87
aI26
aI63
atRp467
sS'/Library/Frameworks/Python.framework/Versions/2.6/lib/python2.6/site-packages/mwlib-0.11.2-py2.6-macosx-10.3-i386.egg/mwlib/writerbase.py'
p468
g3
((lp469
I6
aI72
aI11
aI13
aI15
aI16
aI8
aI18
atRp470
sS'/Users/martinbudden/Documents/github/epub/epub/epub.py'
p471
g3
((lp472
I8
aI11
aI12
aI13
aI16
aI21
aI23
aI24
aI25
aI26
aI27
aI29
aI30
aI31
aI32
aI33
aI34
aI35
aI36
aI37
aI38
aI39
aI40
aI41
aI42
aI43
aI44
aI45
aI46
aI48
aI50
aI51
aI52
aI53
aI54
aI56
aI60
aI62
aI64
aI66
aI67
aI68
aI69
aI71
aI73
aI75
aI77
aI78
aI80
aI81
aI82
aI84
aI88
aI89
aI91
aI92
aI93
aI94
aI96
aI102
aI104
aI105
aI106
aI107
aI108
aI109
aI110
aI112
aI114
aI115
aI116
aI117
aI119
aI121
aI122
aI123
aI124
aI126
aI128
aI132
aI133
aI134
aI136
aI138
aI139
aI140
aI142
aI144
aI146
aI147
aI149
aI150
aI151
aI153
aI155
aI157
aI158
aI159
aI161
aI163
aI164
aI165
aI166
aI167
aI168
aI169
aI170
aI171
atRp473
sS'/Library/Frameworks/Python.framework/Versions/2.6/lib/python2.6/site-packages/mwlib-0.11.2-py2.6-macosx-10.3-i386.egg/mwlib/nshandling.py'
p474
g3
((lp475
I8
aI137
aI10
aI13
aI14
aI15
aI16
aI17
aI18
aI19
aI20
aI21
aI22
aI23
aI24
aI25
aI26
aI27
aI28
aI29
aI30
aI31
aI32
aI34
aI35
aI36
aI37
aI38
aI40
aI52
aI53
aI64
aI81
aI84
aI89
aI115
aI118
atRp476
sS'/Library/Frameworks/Python.framework/Versions/2.6/lib/python2.6/sre_parse.py'
p477
g3
((lp478
I514
aI515
aI86
aI518
aI682
aI520
aI172
aI522
aI523
aI525
aI527
aI528
aI530
aI531
aI532
aI533
aI534
aI535
aI537
aI687
aI491
aI602
aI542
aI543
aI544
aI546
aI547
aI548
aI549
aI550
aI690
aI155
aI87
aI574
aI576
aI539
aI586
aI75
aI588
aI589
aI590
aI591
aI80
aI593
aI594
aI595
aI596
aI598
aI599
aI88
aI601
aI90
aI92
aI97
aI98
aI99
aI100
aI101
aI445
aI629
aI631
aI633
aI635
aI636
aI639
aI640
aI642
aI643
aI644
aI133
aI135
aI137
aI138
aI139
aI141
aI654
aI655
aI657
aI658
aI660
aI149
aI662
aI151
aI152
aI153
aI154
aI667
aI156
aI157
aI158
aI159
aI160
aI161
aI162
aI163
aI676
aI677
aI679
aI168
aI681
aI170
aI171
aI684
aI173
aI174
aI175
aI176
aI177
aI178
aI180
aI181
aI695
aI185
aI186
aI187
aI189
aI190
aI191
aI192
aI193
aI194
aI195
aI198
aI199
aI200
aI202
aI203
aI204
aI205
aI206
aI208
aI209
aI210
aI212
aI214
aI217
aI224
aI226
aI227
aI229
aI233
aI234
aI235
aI236
aI237
aI238
aI239
aI240
aI241
aI243
aI244
aI245
aI246
aI248
aI249
aI255
aI257
aI258
aI145
aI265
aI266
aI267
aI268
aI269
aI270
aI271
aI272
aI273
aI473
aI280
aI285
aI287
aI295
aI296
aI297
aI299
aI301
aI302
aI675
aI310
aI311
aI312
aI313
aI314
aI315
aI316
aI317
aI318
aI319
aI320
aI324
aI325
aI327
aI328
aI331
aI332
aI333
aI334
aI336
aI337
aI338
aI339
aI343
aI344
aI345
aI346
aI347
aI350
aI351
aI352
aI356
aI357
aI358
aI359
aI360
aI361
aI363
aI364
aI674
aI76
aI148
aI449
aI541
aI661
aI387
aI150
aI390
aI391
aI392
aI393
aI394
aI395
aI396
aI397
aI399
aI401
aI402
aI403
aI404
aI405
aI415
aI407
aI409
aI410
aI411
aI412
aI413
aI414
aI81
aI416
aI418
aI419
aI82
aI421
aI423
aI424
aI427
aI428
aI430
aI431
aI432
aI433
aI434
aI435
aI436
aI437
aI438
aI441
aI443
aI444
aI74
aI447
aI448
aI672
aI450
aI451
aI452
aI454
aI455
aI457
aI458
aI459
aI461
aI77
aI465
aI466
aI467
aI470
aI471
aI472
aI169
aI79
aI476
aI478
aI480
aI481
aI482
aI483
aI485
aI486
aI487
aI488
aI167
aI492
aI493
aI494
aI495
aI496
aI497
aI83
aI500
aI501
aI502
aI503
aI504
aI577
atRp479
sS'/Users/martinbudden/Documents/github/epub/epub/mediawikibook.py'
p480
g3
((lp481
I8
aI10
aI11
aI13
aI14
aI15
aI16
aI17
aI21
aI22
aI25
aI28
aI29
aI32
aI38
aI51
aI52
aI56
aI60
aI67
aI68
aI69
aI70
aI71
aI72
aI73
aI74
aI76
aI77
aI78
aI80
aI81
aI83
aI84
aI85
aI87
aI88
aI91
aI92
aI93
aI94
aI95
aI96
aI97
aI100
aI127
aI152
aI153
aI154
aI155
aI156
aI157
aI158
aI161
aI184
aI193
aI194
aI195
aI196
aI197
aI198
aI199
aI200
aI201
aI202
aI203
aI204
aI205
aI206
aI207
aI208
aI209
aI211
aI212
aI213
aI214
aI215
aI216
aI217
aI218
aI219
aI220
aI221
aI222
aI223
aI224
aI225
aI227
aI228
aI231
aI236
aI237
aI238
aI239
aI240
aI241
aI242
aI243
aI244
aI246
aI248
aI262
aI263
aI266
aI290
aI320
aI352
atRp482
sS'/Library/Frameworks/Python.framework/Versions/2.6/lib/python2.6/site-packages/py-1.2.1-py2.6.egg/py/_std.py'
p483
g3
((lp484
I1
aI3
aI6
aI8
aI9
aI11
aI18
atRp485
sS'/Library/Frameworks/Python.framework/Versions/2.6/lib/python2.6/site-packages/mwlib-0.11.2-py2.6-macosx-10.3-i386.egg/mwlib/refine/parse_table.py'
p486
g3
((lp487
I129
aI5
aI6
aI8
aI9
aI13
aI16
aI19
aI261
aI34
aI45
aI195
aI196
aI201
aI204
aI207
aI210
aI225
aI104
aI105
aI110
aI113
aI116
aI126
atRp488
sS'/Library/Frameworks/Python.framework/Versions/2.6/lib/python2.6/site-packages/Jinja2-2.1.1-py2.6-macosx-10.3-i386.egg/jinja2/loaders.py'
p489
g3
((lp490
I258
aI133
aI135
aI10
aI11
aI12
aI141
aI271
aI16
aI17
aI20
aI277
aI24
aI25
aI26
aI27
aI28
aI218
aI30
aI31
aI32
aI116
aI163
aI298
aI300
aI117
aI303
aI176
aI178
aI179
aI180
aI286
aI182
aI183
aI184
aI185
aI186
aI187
aI60
aI189
aI62
aI191
aI192
aI195
aI196
aI197
aI198
aI199
aI200
aI201
aI205
aI206
aI13
aI228
aI209
aI82
aI35
aI216
aI89
aI90
aI221
aI95
aI99
aI100
aI273
aI106
aI107
aI112
aI244
aI190
aI246
aI120
aI249
atRp491
sS'/Library/Frameworks/Python.framework/Versions/2.6/lib/python2.6/email/charset.py'
p492
g3
((lp493
I235
aI6
aI7
aI264
aI9
aI12
aI13
aI271
aI16
aI71
aI21
aI22
aI23
aI26
aI155
aI28
aI33
aI35
aI36
aI198
aI38
aI95
aI43
aI44
aI46
aI47
aI48
aI49
aI50
aI51
aI52
aI53
aI54
aI55
aI56
aI57
aI58
aI59
aI70
aI61
aI318
aI66
aI67
aI68
aI69
aI326
aI199
aI72
aI73
aI74
aI75
aI76
aI77
aI78
aI79
aI80
aI81
aI82
aI83
aI84
aI85
aI86
aI87
aI88
aI89
aI90
aI15
aI135
aI37
aI293
aI96
aI144
aI101
aI97
aI232
aI107
aI237
aI240
aI243
aI372
aI8
aI341
atRp494
sS'/Library/Frameworks/Python.framework/Versions/2.6/lib/python2.6/site-packages/py-1.2.1-py2.6.egg/py/_test/pluginmanager.py'
p495
g3
((lp496
I3
aI4
aI5
aI6
aI7
aI10
aI14
aI15
aI16
aI18
aI19
aI20
aI21
aI22
aI23
aI24
aI25
aI26
aI28
aI29
aI30
aI31
aI33
aI34
aI36
aI37
aI38
aI39
aI40
aI42
aI43
aI44
aI45
aI47
aI48
aI49
aI50
aI51
aI52
aI54
aI55
aI57
aI58
aI61
aI62
aI64
aI68
aI76
aI85
aI86
aI87
aI89
aI91
aI92
aI95
aI96
aI97
aI100
aI107
aI108
aI112
aI120
aI121
aI122
aI128
aI129
aI130
aI131
aI133
aI134
aI141
aI142
aI143
aI145
aI146
aI147
aI156
aI157
aI159
aI165
aI166
aI167
aI168
aI169
aI171
aI172
aI173
aI174
aI175
aI176
aI177
aI178
aI179
aI180
aI182
aI183
aI184
aI185
aI187
aI188
aI189
aI190
aI192
aI193
aI194
aI195
aI196
aI198
aI199
aI200
aI201
aI202
aI203
aI205
aI206
aI207
aI208
aI209
aI210
aI212
aI213
aI214
aI223
aI224
aI226
aI227
aI228
aI229
aI230
aI231
aI233
aI237
aI238
aI239
aI240
aI241
aI242
aI243
aI244
aI245
aI246
aI247
aI249
aI250
aI251
aI252
aI253
aI254
aI255
aI256
aI258
aI259
aI260
aI261
aI262
aI266
aI269
aI270
aI271
aI272
aI273
aI275
aI276
aI277
aI278
aI280
aI281
aI283
aI284
aI286
aI287
aI289
aI290
aI291
aI292
aI293
aI294
aI295
aI296
aI297
aI298
aI299
aI300
aI302
aI303
aI304
aI305
aI306
aI307
aI308
aI309
aI310
aI312
aI313
aI315
aI316
aI317
aI318
aI319
aI321
aI324
aI325
aI326
aI327
aI329
aI330
aI331
aI332
atRp497
sS'/Library/Frameworks/Python.framework/Versions/2.6/lib/python2.6/site-packages/py-1.2.1-py2.6.egg/py/_process/__init__.py'
p498
g3
((lp499
I1
atRp500
sS'/Users/martinbudden/Documents/github/epub/epub/templates/section.xml'
p501
g3
((lp502
I1
aI2
aI3
aI5
aI6
aI7
aI9
aI10
aI11
aI13
aI14
aI15
aI17
aI21
aI22
atRp503
sS'/Library/Frameworks/Python.framework/Versions/2.6/lib/python2.6/site-packages/Jinja2-2.1.1-py2.6-macosx-10.3-i386.egg/jinja2/defaults.py'
p504
g3
((lp505
I32
aI33
aI34
aI39
aI10
aI11
aI15
aI16
aI17
aI18
aI19
aI20
aI21
aI22
aI23
aI27
aI28
aI29
aI30
aI31
atRp506
sS'/Library/Frameworks/Python.framework/Versions/2.6/lib/python2.6/email/utils.py'
p507
g3
((lp508
I256
aI258
aI5
aI8
aI9
aI10
aI11
aI12
aI175
aI14
aI15
aI16
aI17
aI18
aI19
aI22
aI23
aI24
aI25
aI26
aI27
aI28
aI29
aI31
aI32
aI33
aI36
aI37
aI39
aI42
aI44
aI45
aI46
aI47
aI48
aI50
aI51
aI311
aI312
aI57
aI61
aI200
aI73
aI206
aI13
aI83
aI212
aI220
aI102
aI232
aI110
aI240
aI118
aI122
atRp509
sS'/Library/Frameworks/Python.framework/Versions/2.6/lib/python2.6/site-packages/Jinja2-2.1.1-py2.6-macosx-10.3-i386.egg/jinja2/runtime.py'
p510
g3
((lp511
I10
aI11
aI12
aI13
aI15
aI19
aI20
aI21
aI25
aI28
aI39
aI44
aI62
aI64
aI66
aI67
aI68
aI69
aI70
aI71
aI76
aI78
aI90
aI99
aI103
aI105
aI106
aI109
aI113
aI119
aI134
aI135
aI136
aI137
aI138
aI140
aI141
aI142
aI143
aI144
aI145
aI146
aI148
aI151
aI160
aI169
aI170
aI171
aI176
aI177
aI179
aI182
aI188
aI195
aI196
aI198
aI204
aI214
aI221
aI222
aI224
aI238
aI244
aI245
aI246
aI247
aI248
aI250
aI253
aI256
aI264
aI266
aI278
aI286
aI287
aI288
aI290
aI293
aI296
aI302
aI303
aI305
aI317
aI354
aI361
aI374
aI376
aI378
aI384
aI410
aI412
aI415
aI418
aI421
aI425
aI428
aI432
aI444
aI445
aI447
aI458
aI476
aI477
aI479
aI484
atRp512
sS'/Library/Frameworks/Python.framework/Versions/2.6/lib/python2.6/xml/parsers/__init__.py'
p513
g3
((lp514
I8
atRp515
sS'/Library/Frameworks/Python.framework/Versions/2.6/lib/python2.6/site-packages/py-1.2.1-py2.6.egg/py/_test/cmdline.py'
p516
g3
((lp517
I1
aI2
aI8
aI9
aI10
aI11
aI12
aI13
aI14
aI15
aI16
aI17
aI18
aI19
aI20
atRp518
sS'/Library/Frameworks/Python.framework/Versions/2.6/lib/python2.6/site-packages/Jinja2-2.1.1-py2.6-macosx-10.3-i386.egg/jinja2/visitor.py'
p519
g3
((lp520
I10
aI11
aI14
aI24
aI26
aI31
aI32
aI34
aI36
aI37
aI38
aI39
aI41
aI43
aI44
aI47
aI56
aI58
aI59
aI60
aI61
aI62
aI63
aI64
aI65
aI67
aI70
aI71
aI72
aI73
aI74
aI77
aI78
aI80
atRp521
sS'/Library/Frameworks/Python.framework/Versions/2.6/lib/python2.6/site-packages/mwlib-0.11.2-py2.6-macosx-10.3-i386.egg/mwlib/siteinfo/__init__.py'
p522
g3
((lp523
I8
aI9
aI15
aI13
aI5
atRp524
sS'/Users/martinbudden/Documents/github/epub/epub/templates/main.css'
p525
g3
((lp526
I1
aI2
aI3
aI5
aI7
aI9
aI10
atRp527
sS'/Library/Frameworks/Python.framework/Versions/2.6/lib/python2.6/site-packages/mwlib-0.11.2-py2.6-macosx-10.3-i386.egg/mwlib/templ/__init__.py'
p528
g3
((lp529
I8
aI5
aI6
aI7
atRp530
sS'/Library/Frameworks/Python.framework/Versions/2.6/lib/python2.6/site-packages/mwlib-0.11.2-py2.6-macosx-10.3-i386.egg/mwlib/templ/pp.py'
p531
g3
((lp532
I5
aI7
aI9
aI10
aI11
aI12
aI14
aI15
aI16
aI18
aI21
aI29
atRp533
sS'/Library/Frameworks/Python.framework/Versions/2.6/lib/python2.6/atexit.py'
p534
g3
((lp535
I37
aI6
aI8
aI10
aI12
aI13
aI49
aI52
aI54
atRp536
sS'/Library/Frameworks/Python.framework/Versions/2.6/lib/python2.6/ast.py'
p537
g3
((lp538
I32
aI225
aI227
aI101
aI71
aI40
aI233
aI138
aI177
aI207
aI113
aI193
aI244
aI278
aI151
aI280
aI163
aI27
aI28
aI29
atRp539
sS'/Library/Frameworks/Python.framework/Versions/2.6/lib/python2.6/site-packages/py-1.2.1-py2.6.egg/py/_plugin/pytest_default.py'
p540
g3
((lp541
I1
aI3
aI4
aI6
aI7
aI8
aI9
aI12
aI13
aI15
aI16
aI17
aI18
aI19
aI20
aI21
aI23
aI27
aI32
aI34
aI35
aI38
aI39
aI40
aI42
aI45
aI46
aI47
aI48
aI49
aI50
aI51
aI52
aI57
aI58
aI59
aI60
aI61
aI62
aI63
aI64
aI65
aI67
aI68
aI69
aI70
aI72
aI73
aI75
aI76
aI77
aI83
aI84
aI85
aI87
aI92
aI93
aI94
aI96
aI100
aI102
aI103
aI104
atRp542
sS'/Library/Frameworks/Python.framework/Versions/2.6/lib/python2.6/site-packages/mwlib-0.11.2-py2.6-macosx-10.3-i386.egg/mwlib/zipwiki.py'
p543
g3
((lp544
I256
aI259
aI132
aI6
aI7
aI8
aI265
aI10
aI11
aI12
aI16
aI145
aI18
aI25
aI26
aI156
aI157
aI162
aI262
aI166
aI172
aI46
aI9
aI185
aI58
aI59
aI68
aI209
aI86
aI215
aI221
aI98
aI227
aI233
aI110
aI240
aI242
aI244
aI250
aI126
atRp545
sS'/Users/martinbudden/Documents/github/epub/epub/templates/about.css'
p546
g3
((lp547
I1
aI2
aI3
aI5
aI7
aI9
aI10
atRp548
sS'/Library/Frameworks/Python.framework/Versions/2.6/lib/python2.6/site-packages/mwlib-0.11.2-py2.6-macosx-10.3-i386.egg/mwlib/lrucache.py'
p549
g3
((lp550
I64
aI65
aI66
aI75
aI68
aI5
aI6
aI32
aI8
aI9
aI10
aI11
aI12
aI13
aI14
aI15
aI17
aI28
aI63
atRp551
sS'/Library/Frameworks/Python.framework/Versions/2.6/lib/python2.6/cgi.py'
p552
g3
((lp553
I512
aI517
aI1031
aI520
aI16
aI1042
aI533
aI1050
aI31
aI547
aI37
aI38
aI39
aI40
aI41
aI42
aI44
aI45
aI558
aI49
aI50
aI52
aI54
aI55
aI569
aI59
aI60
aI61
aI62
aI63
aI64
aI580
aI69
aI70
aI72
aI586
aI592
aI598
aI602
aI605
aI616
aI618
aI107
aI111
aI115
aI123
aI125
aI641
aI650
aI652
aI665
aI673
aI681
aI690
aI181
aI188
aI194
aI722
aI743
aI775
aI787
aI788
aI46
aI795
aI292
aI806
aI807
aI811
aI813
aI304
aI820
aI829
aI830
aI831
aI839
aI328
aI330
aI333
aI334
aI335
aI336
aI337
aI338
aI339
aI340
aI342
aI857
aI858
aI859
aI348
aI862
aI353
aI868
aI871
aI873
aI876
aI883
aI394
aI396
aI397
aI922
aI936
aI948
aI965
aI977
aI984
aI847
atRp554
sS'/Library/Frameworks/Python.framework/Versions/2.6/lib/python2.6/site-packages/py-1.2.1-py2.6.egg/py/_test/config.py'
p555
g3
((lp556
I1
aI2
aI3
aI4
aI5
aI7
aI17
aI18
aI19
aI20
aI21
aI24
aI25
aI27
aI28
aI29
aI30
aI31
aI32
aI34
aI35
aI36
aI37
aI38
aI39
aI41
aI42
aI43
aI45
aI49
aI50
aI51
aI52
aI53
aI54
aI56
aI57
aI60
aI61
aI62
aI63
aI74
aI75
aI76
aI77
aI78
aI79
aI80
aI82
aI83
aI84
aI85
aI86
aI87
aI89
aI93
aI95
aI96
aI97
aI98
aI100
aI101
aI102
aI104
aI105
aI106
aI112
aI119
aI134
aI137
aI149
aI157
aI158
aI160
aI161
aI162
aI163
aI165
aI166
aI170
aI171
aI172
aI173
aI178
aI179
aI180
aI181
aI182
aI188
aI194
aI195
aI196
aI197
aI207
aI217
aI220
aI230
aI237
aI238
aI242
aI248
aI250
aI251
aI252
aI253
aI254
aI255
aI256
aI262
aI267
aI268
aI269
aI271
aI272
aI273
aI278
aI280
aI281
aI282
aI284
aI288
aI291
atRp557
sS'/Library/Frameworks/Python.framework/Versions/2.6/lib/python2.6/fnmatch.py'
p558
g3
((lp559
I11
aI13
aI15
aI17
aI19
aI35
aI36
aI37
aI38
aI40
aI60
aI67
aI68
aI69
aI70
aI72
aI78
aI79
aI80
aI81
aI82
aI83
aI84
aI85
aI87
aI106
aI107
atRp560
sS'/Library/Frameworks/Python.framework/Versions/2.6/lib/python2.6/cmd.py'
p561
g3
((lp562
I68
aI154
aI283
aI161
aI165
aI295
aI169
aI298
aI46
aI176
aI50
aI52
aI53
aI55
aI66
aI67
aI196
aI69
aI70
aI71
aI72
aI73
aI74
aI75
aI76
aI77
aI79
aI48
aI343
aI221
aI351
aI102
aI231
aI240
aI249
aI253
atRp563
sS'/Library/Frameworks/Python.framework/Versions/2.6/lib/python2.6/site-packages/py-1.2.1-py2.6.egg/py/_code/source.py'
p564
g3
((lp565
I1
aI2
aI3
aI260
aI5
aI7
aI8
aI9
aI266
aI268
aI258
aI143
aI18
aI19
aI4
aI156
aI287
aI49
aI41
aI259
aI304
aI136
aI179
aI182
aI265
aI184
aI57
aI60
aI65
aI225
aI183
aI78
aI89
aI15
aI224
aI97
aI104
aI242
aI243
aI244
atRp566
sS'/Library/Frameworks/Python.framework/Versions/2.6/lib/python2.6/site-packages/mwlib-0.11.2-py2.6-macosx-10.3-i386.egg/mwlib/advtree.py'
p567
g3
((lp568
I512
aI513
aI515
aI516
aI518
aI519
aI521
aI522
aI524
aI525
aI528
aI529
aI20
aI21
aI22
aI23
aI24
aI25
aI26
aI27
aI28
aI29
aI30
aI32
aI547
aI548
aI549
aI550
aI552
aI553
aI43
aI561
aI562
aI563
aI566
aI55
aI568
aI60
aI574
aI575
aI576
aI65
aI578
aI584
aI76
aI601
aI91
aI100
aI104
aI108
aI119
aI642
aI133
aI649
aI142
aI146
aI150
aI157
aI161
aI167
aI687
aI179
aI702
aI191
aI197
aI712
aI203
aI208
aI35
aI724
aI213
aI733
aI229
aI239
aI254
aI261
aI63
aI295
aI305
aI137
aI313
aI322
aI323
aI324
aI326
aI327
aI328
aI329
aI330
aI331
aI332
aI333
aI341
aI342
aI346
aI355
aI356
aI361
aI362
aI363
aI367
aI372
aI62
aI376
aI377
aI379
aI380
aI662
aI577
aI393
aI394
aI396
aI397
aI399
aI400
aI402
aI403
aI405
aI406
aI408
aI409
aI411
aI412
aI413
aI415
aI416
aI417
aI419
aI421
aI422
aI424
aI425
aI427
aI428
aI429
aI431
aI432
aI433
aI435
aI436
aI437
aI439
aI440
aI441
aI443
aI444
aI445
aI447
aI448
aI449
aI453
aI373
aI461
aI462
aI464
aI465
aI467
aI468
aI470
aI471
aI473
aI474
aI476
aI477
aI479
aI480
aI482
aI483
aI485
aI486
aI488
aI489
aI491
aI492
aI494
aI495
aI497
aI498
aI500
aI501
aI503
aI504
aI506
aI507
aI509
aI510
atRp569
sS'/Library/Frameworks/Python.framework/Versions/2.6/lib/python2.6/site-packages/mwlib-0.11.2-py2.6-macosx-10.3-i386.egg/mwlib/refine/__init__.py'
p570
g3
((lp571
I1
atRp572
sS'/Library/Frameworks/Python.framework/Versions/2.6/lib/python2.6/heapq.py'
p573
g3
((lp574
I129
aI130
aI132
aI133
aI134
aI136
aI141
aI152
aI31
aI289
aI168
aI175
aI310
aI311
aI186
aI315
aI202
aI351
aI352
aI236
aI366
aI367
aI381
aI127
atRp575
sS'/Library/Frameworks/Python.framework/Versions/2.6/lib/python2.6/ssl.py'
p576
g3
((lp577
I257
aI130
aI278
aI341
aI264
aI343
aI397
aI270
aI143
aI344
aI150
aI282
aI159
aI416
aI289
aI166
aI295
aI431
aI311
aI56
aI58
aI187
aI60
aI62
aI63
aI64
aI65
aI66
aI194
aI329
aI77
aI78
aI79
aI209
aI340
aI85
aI342
aI87
aI88
aI89
aI90
aI91
aI226
aI355
aI81
aI364
aI365
aI367
aI250
aI383
atRp578
sS'/Library/Frameworks/Python.framework/Versions/2.6/lib/python2.6/site-packages/mwlib-0.11.2-py2.6-macosx-10.3-i386.egg/mwlib/xmltreecleaner.py'
p579
g3
((lp580
I97
aI11
aI68
aI7
aI8
aI9
aI10
aI43
aI13
aI144
aI85
aI25
aI26
aI28
aI94
aI95
atRp581
sS'/Library/Frameworks/Python.framework/Versions/2.6/lib/python2.6/site-packages/mwlib-0.11.2-py2.6-macosx-10.3-i386.egg/mwlib/uniq.py'
p582
g3
((lp583
I36
aI5
aI7
aI8
aI9
aI10
aI17
aI50
aI24
aI31
atRp584
sS'/Library/Frameworks/Python.framework/Versions/2.6/lib/python2.6/email/iterators.py'
p585
g3
((lp586
I35
aI5
aI8
aI9
aI10
aI14
aI15
aI20
aI47
aI61
atRp587
sS'/Library/Frameworks/Python.framework/Versions/2.6/lib/python2.6/email/__init__.py'
p588
g3
((lp589
I5
aI7
aI11
aI12
aI13
aI14
aI15
aI16
aI17
aI18
aI19
aI20
aI21
aI22
aI23
aI24
aI25
aI26
aI27
aI28
aI29
aI30
aI32
aI33
aI34
aI35
aI36
aI37
aI38
aI39
aI40
aI41
aI42
aI43
aI51
aI60
aI72
aI74
aI75
aI76
aI78
aI87
aI88
aI89
aI90
aI91
aI92
aI93
aI94
aI95
aI96
aI97
aI98
aI103
aI104
aI105
aI106
aI107
aI108
aI109
aI112
aI113
aI114
aI115
aI118
aI119
aI120
aI121
aI122
aI123
atRp590
sS'/Library/Frameworks/Python.framework/Versions/2.6/lib/python2.6/__future__.py'
p591
g3
((lp592
I128
aI48
aI51
aI52
aI53
aI54
aI55
aI56
aI57
aI60
aI66
aI67
aI68
aI69
aI70
aI71
aI72
aI74
aI75
aI76
aI77
aI78
aI80
aI88
aI97
aI102
aI103
aI104
aI106
aI107
aI108
aI110
aI111
aI112
aI114
aI115
aI116
aI118
aI119
aI120
aI122
aI123
aI124
aI126
aI127
atRp593
sS'/Library/Frameworks/Python.framework/Versions/2.6/lib/python2.6/base64.py'
p594
g3
((lp595
I129
aI130
aI259
aI132
aI135
aI8
aI9
aI10
aI15
aI17
aI18
aI3
aI20
aI25
aI282
aI283
aI28
aI29
aI32
aI42
aI300
aI285
aI177
aI351
aI310
aI59
aI319
aI326
aI79
aI86
aI95
aI251
aI131
aI358
aI103
aI117
aI118
aI119
aI120
aI121
aI122
aI123
aI124
aI125
aI126
atRp596
sS'/Library/Frameworks/Python.framework/Versions/2.6/lib/python2.6/site-packages/py-1.2.1-py2.6.egg/py/_builtin.py'
p597
g3
((lp598
I1
aI3
aI4
aI134
aI135
aI136
aI137
aI138
aI139
aI141
aI144
aI145
aI147
aI148
aI150
aI38
aI39
aI170
aI181
aI193
aI195
aI68
aI197
aI198
aI199
aI200
aI73
aI75
aI76
aI80
aI81
aI90
aI67
atRp599
sS'/Library/Frameworks/Python.framework/Versions/2.6/lib/python2.6/email/message.py'
p600
g3
((lp601
I384
aI771
aI17
aI790
aI7
aI9
aI10
aI11
aI12
aI13
aI528
aI529
aI18
aI20
aI277
aI406
aI24
aI281
aI154
aI28
aI666
aI5
aI292
aI166
aI425
aI682
aI300
aI564
aI565
aI138
aI695
aI312
aI315
aI60
aI458
aI320
aI449
aI330
aI78
aI269
aI467
aI340
aI216
aI740
aI90
aI476
aI122
aI350
aI16
aI226
aI634
aI612
aI485
aI145
aI104
aI105
aI366
aI116
aI148
aI506
aI38
atRp602
sS'/Library/Frameworks/Python.framework/Versions/2.6/lib/python2.6/site-packages/py-1.2.1-py2.6.egg/py/_plugin/pytest_genscript.py'
p603
g3
((lp604
I32
aI4
aI6
aI7
aI8
aI9
aI10
aI11
aI15
aI16
aI17
aI18
aI19
aI21
aI22
aI23
aI63
atRp605
sS'/Library/Frameworks/Python.framework/Versions/2.6/lib/python2.6/site-packages/py-1.2.1-py2.6.egg/py/_plugin/hookspec.py'
p606
g3
((lp607
I3
aI132
aI134
aI9
aI140
aI15
aI143
aI146
aI20
aI149
aI152
aI155
aI29
aI158
aI31
aI34
aI27
aI37
aI166
aI40
aI169
aI43
aI172
aI45
aI175
aI48
aI178
aI55
aI57
aI59
aI61
aI63
aI70
aI72
aI12
aI74
aI77
aI80
aI83
aI85
aI87
aI91
aI93
aI95
aI102
aI105
aI112
aI115
aI117
aI119
aI122
aI126
atRp608
sS'/Library/Frameworks/Python.framework/Versions/2.6/lib/python2.6/site-packages/mwlib-0.11.2-py2.6-macosx-10.3-i386.egg/mwlib/expr.py'
p609
g3
((lp610
I128
aI64
aI131
aI134
aI9
aI11
aI13
aI14
aI15
aI17
aI18
aI20
aI32
aI34
aI35
aI49
aI50
aI52
aI53
aI54
aI56
aI57
aI58
aI59
aI61
aI62
aI191
aI192
aI70
aI72
aI73
aI74
aI75
aI204
aI77
aI78
aI79
aI80
aI81
aI82
aI83
aI84
aI85
aI86
aI87
aI88
aI90
aI91
aI92
aI93
aI96
aI97
aI99
aI101
aI102
aI103
aI104
aI105
aI106
aI107
aI109
aI110
aI111
aI76
aI113
aI114
aI115
aI116
aI118
aI232
atRp611
sS'/Users/martinbudden/Documents/github/epub/epub/templates/toc.ncx'
p612
g3
((lp613
I1
aI2
aI3
aI5
aI6
aI7
aI8
aI9
aI10
aI12
aI13
aI14
aI15
aI16
aI18
aI19
aI21
aI22
aI23
aI24
aI25
aI26
aI28
aI29
aI31
aI32
atRp614
sS'/Library/Frameworks/Python.framework/Versions/2.6/lib/python2.6/site-packages/py-1.2.1-py2.6.egg/py/_test/parseopt.py'
p615
g3
((lp616
I15
aI16
aI17
aI19
aI20
aI22
aI23
aI24
aI25
aI26
aI27
aI29
aI30
aI31
aI32
aI34
aI37
aI38
aI39
aI40
aI41
aI42
aI43
aI44
aI45
aI46
aI47
aI49
aI50
aI54
aI58
aI59
aI60
aI61
aI62
aI63
aI64
aI65
aI66
aI67
aI69
aI70
aI71
aI72
aI73
aI76
aI77
aI78
aI79
aI80
aI81
aI83
aI85
aI86
aI88
aI89
aI90
aI92
aI93
aI94
aI97
aI98
aI99
aI102
aI103
aI104
aI105
aI106
atRp617
sS'/Library/Frameworks/Python.framework/Versions/2.6/lib/python2.6/site-packages/mwlib-0.11.2-py2.6-macosx-10.3-i386.egg/mwlib/uparser.py'
p618
g3
((lp619
I5
atRp620
sS'/Library/Frameworks/Python.framework/Versions/2.6/lib/python2.6/locale.py'
p621
g3
((lp622
I354
aI355
aI342
aI357
aI360
aI361
aI362
aI333
aI334
aI337
aI372
aI341
aI374
aI377
aI345
aI346
aI347
aI348
aI349
atRp623
sS'/Library/Frameworks/Python.framework/Versions/2.6/lib/python2.6/urllib.py'
p624
g3
((lp625
I1542
aI1031
aI1039
aI1040
aI1558
aI23
aI25
aI26
aI27
aI28
aI29
aI30
aI31
aI33
aI34
aI35
aI36
aI37
aI38
aI39
aI1065
aI1066
aI43
aI46
aI48
aI50
aI1077
aI1078
aI567
aI58
aI95
aI1596
aI693
aI1090
aI1091
aI71
aI72
aI1102
aI1103
aI1624
aI1124
aI90
aI1125
aI100
aI101
aI614
aI615
aI617
aI108
aI109
aI623
aI1136
aI113
aI114
aI627
aI105
aI120
aI122
aI1148
aI127
aI1154
aI643
aI1166
aI1167
aI656
aI1169
aI660
aI150
aI664
aI153
aI156
aI1182
aI671
aI1187
aI1190
aI1137
aI1192
aI1564
aI170
aI1053
aI176
aI1054
aI1226
aI715
aI802
aI973
aI1233
aI212
aI217
aI732
aI223
aI124
aI749
aI41
aI762
aI775
aI1297
aI786
aI1155
aI1313
aI290
aI803
aI810
aI811
aI818
aI819
aI1333
aI1334
aI1336
aI827
aI828
aI53
aI844
aI845
aI848
aI857
aI866
aI365
aI1391
aI1401
aI380
aI1407
aI386
aI387
aI906
aI915
aI922
aI923
aI925
aI939
aI943
aI951
aI952
aI954
aI959
aI966
aI967
aI969
aI461
aI976
aI977
aI979
aI470
aI985
aI988
aI991
aI1010
aI1011
aI1016
aI505
aI1019
atRp626
sS'/Library/Frameworks/Python.framework/Versions/2.6/lib/python2.6/site-packages/py-1.2.1-py2.6.egg/py/_test/__init__.py'
p627
g3
((lp628
I1
atRp629
sS'/Users/martinbudden/Documents/github/epub/epub/templates/page.css'
p630
g3
((lp631
I1
aI2
aI3
aI5
aI7
aI9
aI10
atRp632
sS'/Library/Frameworks/Python.framework/Versions/2.6/lib/python2.6/site-packages/py-1.2.1-py2.6.egg/py/_plugin/pytest_unittest.py'
p633
g3
((lp634
I15
aI16
aI17
aI19
aI20
aI22
aI23
aI24
aI25
aI30
aI31
aI34
aI37
aI40
aI41
aI42
aI52
aI56
aI57
aI67
aI72
aI76
atRp635
sS'/Library/Frameworks/Python.framework/Versions/2.6/lib/python2.6/site-packages/py-1.2.1-py2.6.egg/py/_plugin/pytest_nose.py'
p636
g3
((lp637
I39
aI40
aI41
aI42
aI44
aI45
aI46
aI52
aI66
aI67
aI68
aI75
aI77
aI79
aI80
aI81
aI82
aI87
aI88
aI91
aI92
aI93
atRp638
sS'/Library/Frameworks/Python.framework/Versions/2.6/lib/python2.6/xml/etree/ElementPath.py'
p639
g3
((lp640
I133
aI66
aI197
aI71
aI103
aI172
aI167
aI118
aI185
aI56
aI57
aI54
aI60
aI61
aI191
atRp641
sS'/Library/Frameworks/Python.framework/Versions/2.6/lib/python2.6/UserDict.py'
p642
g3
((lp643
I70
aI44
aI18
aI19
aI20
aI22
aI58
aI59
aI60
atRp644
sS'/Library/Frameworks/Python.framework/Versions/2.6/lib/python2.6/site-packages/py-1.2.1-py2.6.egg/py/_plugin/pytest_pdb.py'
p645
g3
((lp646
I32
aI33
aI98
aI3
aI4
aI5
aI6
aI103
aI8
aI9
aI10
aI11
aI12
aI78
aI15
aI80
aI18
aI19
aI14
aI88
atRp647
sS'/Library/Frameworks/Python.framework/Versions/2.6/lib/python2.6/email/errors.py'
p648
g3
((lp649
I5
aI9
aI10
aI13
aI14
aI17
aI18
aI21
aI22
aI25
aI26
aI29
aI30
aI35
aI36
aI38
aI41
aI42
aI44
aI45
aI47
aI48
aI50
aI51
aI53
aI54
aI56
aI57
atRp650
sS'/Library/Frameworks/Python.framework/Versions/2.6/lib/python2.6/threading.py'
p651
g3
((lp652
I90
atRp653
sS'/Library/Frameworks/Python.framework/Versions/2.6/lib/python2.6/urlparse.py'
p654
g3
((lp655
I5
aI7
aI8
aI11
aI12
aI13
aI14
aI15
aI16
aI17
aI18
aI19
aI20
aI21
aI22
aI23
aI24
aI25
aI26
aI27
aI30
aI35
aI36
aI38
aI43
aI44
aI46
aI56
aI65
aI74
aI84
aI86
aI88
aI90
aI94
aI96
aI98
aI102
aI108
aI109
aI110
aI113
aI114
aI116
aI125
aI126
aI127
aI128
aI129
aI131
aI133
aI139
aI140
aI141
aI142
aI144
aI146
aI147
aI148
aI149
aI150
aI151
aI152
aI153
aI154
aI156
aI158
aI159
aI160
aI166
aI168
aI170
aI172
aI173
aI174
aI176
aI181
aI182
aI184
aI186
aI187
aI188
aI189
aI190
aI191
aI192
aI193
aI195
aI197
aI199
aI202
aI204
aI207
aI209
aI210
aI212
aI213
aI216
aI217
aI220
aI232
aI234
aI236
aI238
aI239
aI240
aI241
aI248
aI249
aI251
aI253
aI254
aI256
aI274
aI275
aI277
aI290
aI316
aI389
aI391
aI422
atRp656
sS'/Library/Frameworks/Python.framework/Versions/2.6/lib/python2.6/abc.py'
p657
g3
((lp658
I140
aI143
aI145
aI146
aI150
aI151
aI159
aI163
aI164
aI168
aI169
aI173
aI174
aI79
aI81
aI82
aI83
aI84
aI85
aI89
aI91
aI92
aI93
aI94
aI95
aI99
aI101
aI105
aI108
aI109
atRp659
sS'/Library/Frameworks/Python.framework/Versions/2.6/lib/python2.6/site-packages/py-1.2.1-py2.6.egg/py/_plugin/pytest_tmpdir.py'
p660
g3
((lp661
I10
aI11
aI13
atRp662
sS'/Library/Frameworks/Python.framework/Versions/2.6/lib/python2.6/pickle.py'
p663
g3
((lp664
I1025
aI1027
aI1036
aI1043
aI532
aI345
aI25
aI27
aI29
aI30
aI31
aI32
aI33
aI34
aI35
aI37
aI38
aI41
aI42
aI43
aI44
aI45
aI46
aI1071
aI1073
aI51
aI155
aI94
aI1078
aI1080
aI1144
aI58
aI59
aI60
aI1085
aI62
aI1087
aI66
aI67
aI1092
aI69
aI1094
aI583
aI1097
aI1099
aI588
aI77
aI1102
aI269
aI1104
aI82
aI1107
aI1109
aI87
aI88
aI89
aI602
aI93
aI606
aI608
aI1122
aI870
aI102
aI103
aI104
aI1129
aI106
aI107
aI108
aI109
aI110
aI1135
aI112
aI1137
aI114
aI1139
aI116
aI1141
aI118
aI105
aI120
aI121
aI1146
aI123
aI1148
aI125
aI1150
aI127
aI1152
aI129
aI1154
aI131
aI132
aI1157
aI134
aI1159
aI136
aI137
aI1162
aI651
aI652
aI141
aI1166
aI655
aI1168
aI145
aI1171
aI90
aI1173
aI772
aI151
aI1176
aI153
aI1178
aI111
aI156
aI157
aI158
aI159
aI160
aI1185
aI162
aI165
aI166
aI1191
aI1193
aI171
aI173
aI1199
aI1201
aI690
aI115
aI1209
aI1211
aI117
aI119
aI1183
aI209
aI1240
aI1242
aI1244
aI122
aI1246
aI1249
aI227
aI1253
aI1254
aI977
aI124
aI1258
aI1260
aI126
aI250
aI1066
aI981
aI128
aI770
aI771
aI260
aI773
aI777
aI983
aI130
aI138
aI728
aI333
aI640
aI797
aI799
aI140
aI220
aI135
aI1326
aI1004
aI827
aI829
aI139
aI113
aI1164
aI1356
aI845
aI56
aI1364
aI142
aI1369
aI346
aI1372
aI144
aI1378
aI1382
aI877
aI879
aI881
aI883
aI887
aI889
aI892
aI1002
aI894
aI149
aI897
aI899
aI901
aI903
aI905
aI907
aI909
aI337
aI911
aI152
aI947
aI923
aI154
aI150
aI927
aI133
aI929
aI931
aI933
aI935
aI730
aI937
aI426
aI939
aI428
aI941
aI430
aI925
aI945
aI435
aI437
aI951
aI953
aI955
aI957
aI959
aI961
aI1014
aI459
aI972
aI461
aI974
aI1357
aI504
aI979
aI78
aI471
aI473
aI986
aI591
aI988
aI478
aI991
aI480
aI993
aI996
aI998
aI1361
aI1000
aI490
aI492
aI1006
aI1008
aI424
aI1010
aI83
aI1012
aI502
aI1016
aI1018
aI1020
aI1022
atRp665
sS'/Library/Frameworks/Python.framework/Versions/2.6/lib/python2.6/site-packages/mwlib-0.11.2-py2.6-macosx-10.3-i386.egg/mwlib/xhtmlwriter.py'
p666
g3
((lp667
I512
aI517
aI172
aI526
aI531
aI27
aI29
aI30
aI31
aI32
aI33
aI37
aI38
aI177
aI40
aI41
aI44
aI557
aI46
aI48
aI58
aI575
aI584
aI74
aI598
aI88
aI102
aI700
aI107
aI621
aI622
aI111
aI624
aI625
aI626
aI627
aI628
aI629
aI630
aI631
aI632
aI633
aI634
aI635
aI636
aI637
aI638
aI639
aI640
aI192
aI130
aI643
aI644
aI645
aI647
aI137
aI650
aI150
aI623
aI668
aI673
aI678
aI684
aI173
aI174
aI689
aI179
aI180
aI694
aI184
aI186
aI188
aI704
aI708
aI118
aI198
aI711
aI719
aI729
aI122
aI222
aI737
aI231
aI39
aI125
aI552
aI245
aI766
aI258
aI641
aI778
aI779
aI780
aI642
aI782
aI271
aI784
aI785
aI786
aI387
aI788
aI277
aI804
aI307
aI314
aI324
aI329
aI343
aI351
aI114
aI361
aI365
aI370
aI373
aI115
aI397
aI408
aI411
aI436
aI443
aI444
aI445
aI448
aI455
aI465
aI473
atRp668
s.